
;CodeVisionAVR C Compiler V2.05.0 Professional
;(C) Copyright 1998-2010 Pavel Haiduc, HP InfoTech s.r.l.
;http://www.hpinfotech.com

;Chip type                : ATmega8
;Program type             : Application
;Clock frequency          : 2,000000 MHz
;Memory model             : Small
;Optimize for             : Speed
;(s)printf features       : int, width
;(s)scanf features        : int, width
;External RAM size        : 0
;Data Stack size          : 64 byte(s)
;Heap size                : 0 byte(s)
;Promote 'char' to 'int'  : Yes
;'char' is unsigned       : Yes
;8 bit enums              : Yes
;global 'const' stored in FLASH: No
;Enhanced core instructions    : On
;Smart register allocation     : On
;Automatic register allocation : On

	#pragma AVRPART ADMIN PART_NAME ATmega8
	#pragma AVRPART MEMORY PROG_FLASH 8192
	#pragma AVRPART MEMORY EEPROM 512
	#pragma AVRPART MEMORY INT_SRAM SIZE 1119
	#pragma AVRPART MEMORY INT_SRAM START_ADDR 0x60

	.LISTMAC
	.EQU UDRE=0x5
	.EQU RXC=0x7
	.EQU USR=0xB
	.EQU UDR=0xC
	.EQU SPSR=0xE
	.EQU SPDR=0xF
	.EQU EERE=0x0
	.EQU EEWE=0x1
	.EQU EEMWE=0x2
	.EQU EECR=0x1C
	.EQU EEDR=0x1D
	.EQU EEARL=0x1E
	.EQU EEARH=0x1F
	.EQU WDTCR=0x21
	.EQU MCUCR=0x35
	.EQU GICR=0x3B
	.EQU SPL=0x3D
	.EQU SPH=0x3E
	.EQU SREG=0x3F

	.DEF R0X0=R0
	.DEF R0X1=R1
	.DEF R0X2=R2
	.DEF R0X3=R3
	.DEF R0X4=R4
	.DEF R0X5=R5
	.DEF R0X6=R6
	.DEF R0X7=R7
	.DEF R0X8=R8
	.DEF R0X9=R9
	.DEF R0XA=R10
	.DEF R0XB=R11
	.DEF R0XC=R12
	.DEF R0XD=R13
	.DEF R0XE=R14
	.DEF R0XF=R15
	.DEF R0X10=R16
	.DEF R0X11=R17
	.DEF R0X12=R18
	.DEF R0X13=R19
	.DEF R0X14=R20
	.DEF R0X15=R21
	.DEF R0X16=R22
	.DEF R0X17=R23
	.DEF R0X18=R24
	.DEF R0X19=R25
	.DEF R0X1A=R26
	.DEF R0X1B=R27
	.DEF R0X1C=R28
	.DEF R0X1D=R29
	.DEF R0X1E=R30
	.DEF R0X1F=R31

	.EQU __SRAM_START=0x0060
	.EQU __SRAM_END=0x045F
	.EQU __DSTACK_SIZE=0x0040
	.EQU __HEAP_SIZE=0x0000
	.EQU __CLEAR_SRAM_SIZE=__SRAM_END-__SRAM_START+1

	.MACRO __CPD1N
	CPI  R30,LOW(@0)
	LDI  R26,HIGH(@0)
	CPC  R31,R26
	LDI  R26,BYTE3(@0)
	CPC  R22,R26
	LDI  R26,BYTE4(@0)
	CPC  R23,R26
	.ENDM

	.MACRO __CPD2N
	CPI  R26,LOW(@0)
	LDI  R30,HIGH(@0)
	CPC  R27,R30
	LDI  R30,BYTE3(@0)
	CPC  R24,R30
	LDI  R30,BYTE4(@0)
	CPC  R25,R30
	.ENDM

	.MACRO __CPWRR
	CP   R@0,R@2
	CPC  R@1,R@3
	.ENDM

	.MACRO __CPWRN
	CPI  R@0,LOW(@2)
	LDI  R30,HIGH(@2)
	CPC  R@1,R30
	.ENDM

	.MACRO __ADDB1MN
	SUBI R30,LOW(-@0-(@1))
	.ENDM

	.MACRO __ADDB2MN
	SUBI R26,LOW(-@0-(@1))
	.ENDM

	.MACRO __ADDW1MN
	SUBI R30,LOW(-@0-(@1))
	SBCI R31,HIGH(-@0-(@1))
	.ENDM

	.MACRO __ADDW2MN
	SUBI R26,LOW(-@0-(@1))
	SBCI R27,HIGH(-@0-(@1))
	.ENDM

	.MACRO __ADDW1FN
	SUBI R30,LOW(-2*@0-(@1))
	SBCI R31,HIGH(-2*@0-(@1))
	.ENDM

	.MACRO __ADDD1FN
	SUBI R30,LOW(-2*@0-(@1))
	SBCI R31,HIGH(-2*@0-(@1))
	SBCI R22,BYTE3(-2*@0-(@1))
	.ENDM

	.MACRO __ADDD1N
	SUBI R30,LOW(-@0)
	SBCI R31,HIGH(-@0)
	SBCI R22,BYTE3(-@0)
	SBCI R23,BYTE4(-@0)
	.ENDM

	.MACRO __ADDD2N
	SUBI R26,LOW(-@0)
	SBCI R27,HIGH(-@0)
	SBCI R24,BYTE3(-@0)
	SBCI R25,BYTE4(-@0)
	.ENDM

	.MACRO __SUBD1N
	SUBI R30,LOW(@0)
	SBCI R31,HIGH(@0)
	SBCI R22,BYTE3(@0)
	SBCI R23,BYTE4(@0)
	.ENDM

	.MACRO __SUBD2N
	SUBI R26,LOW(@0)
	SBCI R27,HIGH(@0)
	SBCI R24,BYTE3(@0)
	SBCI R25,BYTE4(@0)
	.ENDM

	.MACRO __ANDBMNN
	LDS  R30,@0+(@1)
	ANDI R30,LOW(@2)
	STS  @0+(@1),R30
	.ENDM

	.MACRO __ANDWMNN
	LDS  R30,@0+(@1)
	ANDI R30,LOW(@2)
	STS  @0+(@1),R30
	LDS  R30,@0+(@1)+1
	ANDI R30,HIGH(@2)
	STS  @0+(@1)+1,R30
	.ENDM

	.MACRO __ANDD1N
	ANDI R30,LOW(@0)
	ANDI R31,HIGH(@0)
	ANDI R22,BYTE3(@0)
	ANDI R23,BYTE4(@0)
	.ENDM

	.MACRO __ANDD2N
	ANDI R26,LOW(@0)
	ANDI R27,HIGH(@0)
	ANDI R24,BYTE3(@0)
	ANDI R25,BYTE4(@0)
	.ENDM

	.MACRO __ORBMNN
	LDS  R30,@0+(@1)
	ORI  R30,LOW(@2)
	STS  @0+(@1),R30
	.ENDM

	.MACRO __ORWMNN
	LDS  R30,@0+(@1)
	ORI  R30,LOW(@2)
	STS  @0+(@1),R30
	LDS  R30,@0+(@1)+1
	ORI  R30,HIGH(@2)
	STS  @0+(@1)+1,R30
	.ENDM

	.MACRO __ORD1N
	ORI  R30,LOW(@0)
	ORI  R31,HIGH(@0)
	ORI  R22,BYTE3(@0)
	ORI  R23,BYTE4(@0)
	.ENDM

	.MACRO __ORD2N
	ORI  R26,LOW(@0)
	ORI  R27,HIGH(@0)
	ORI  R24,BYTE3(@0)
	ORI  R25,BYTE4(@0)
	.ENDM

	.MACRO __DELAY_USB
	LDI  R24,LOW(@0)
__DELAY_USB_LOOP:
	DEC  R24
	BRNE __DELAY_USB_LOOP
	.ENDM

	.MACRO __DELAY_USW
	LDI  R24,LOW(@0)
	LDI  R25,HIGH(@0)
__DELAY_USW_LOOP:
	SBIW R24,1
	BRNE __DELAY_USW_LOOP
	.ENDM

	.MACRO __GETD1S
	LDD  R30,Y+@0
	LDD  R31,Y+@0+1
	LDD  R22,Y+@0+2
	LDD  R23,Y+@0+3
	.ENDM

	.MACRO __GETD2S
	LDD  R26,Y+@0
	LDD  R27,Y+@0+1
	LDD  R24,Y+@0+2
	LDD  R25,Y+@0+3
	.ENDM

	.MACRO __PUTD1S
	STD  Y+@0,R30
	STD  Y+@0+1,R31
	STD  Y+@0+2,R22
	STD  Y+@0+3,R23
	.ENDM

	.MACRO __PUTD2S
	STD  Y+@0,R26
	STD  Y+@0+1,R27
	STD  Y+@0+2,R24
	STD  Y+@0+3,R25
	.ENDM

	.MACRO __PUTDZ2
	STD  Z+@0,R26
	STD  Z+@0+1,R27
	STD  Z+@0+2,R24
	STD  Z+@0+3,R25
	.ENDM

	.MACRO __CLRD1S
	STD  Y+@0,R30
	STD  Y+@0+1,R30
	STD  Y+@0+2,R30
	STD  Y+@0+3,R30
	.ENDM

	.MACRO __POINTB1MN
	LDI  R30,LOW(@0+(@1))
	.ENDM

	.MACRO __POINTW1MN
	LDI  R30,LOW(@0+(@1))
	LDI  R31,HIGH(@0+(@1))
	.ENDM

	.MACRO __POINTD1M
	LDI  R30,LOW(@0)
	LDI  R31,HIGH(@0)
	LDI  R22,BYTE3(@0)
	LDI  R23,BYTE4(@0)
	.ENDM

	.MACRO __POINTW1FN
	LDI  R30,LOW(2*@0+(@1))
	LDI  R31,HIGH(2*@0+(@1))
	.ENDM

	.MACRO __POINTD1FN
	LDI  R30,LOW(2*@0+(@1))
	LDI  R31,HIGH(2*@0+(@1))
	LDI  R22,BYTE3(2*@0+(@1))
	LDI  R23,BYTE4(2*@0+(@1))
	.ENDM

	.MACRO __POINTB2MN
	LDI  R26,LOW(@0+(@1))
	.ENDM

	.MACRO __POINTW2MN
	LDI  R26,LOW(@0+(@1))
	LDI  R27,HIGH(@0+(@1))
	.ENDM

	.MACRO __POINTBRM
	LDI  R@0,LOW(@1)
	.ENDM

	.MACRO __POINTWRM
	LDI  R@0,LOW(@2)
	LDI  R@1,HIGH(@2)
	.ENDM

	.MACRO __POINTBRMN
	LDI  R@0,LOW(@1+(@2))
	.ENDM

	.MACRO __POINTWRMN
	LDI  R@0,LOW(@2+(@3))
	LDI  R@1,HIGH(@2+(@3))
	.ENDM

	.MACRO __POINTWRFN
	LDI  R@0,LOW(@2*2+(@3))
	LDI  R@1,HIGH(@2*2+(@3))
	.ENDM

	.MACRO __GETD1N
	LDI  R30,LOW(@0)
	LDI  R31,HIGH(@0)
	LDI  R22,BYTE3(@0)
	LDI  R23,BYTE4(@0)
	.ENDM

	.MACRO __GETD2N
	LDI  R26,LOW(@0)
	LDI  R27,HIGH(@0)
	LDI  R24,BYTE3(@0)
	LDI  R25,BYTE4(@0)
	.ENDM

	.MACRO __GETB1MN
	LDS  R30,@0+(@1)
	.ENDM

	.MACRO __GETB1HMN
	LDS  R31,@0+(@1)
	.ENDM

	.MACRO __GETW1MN
	LDS  R30,@0+(@1)
	LDS  R31,@0+(@1)+1
	.ENDM

	.MACRO __GETD1MN
	LDS  R30,@0+(@1)
	LDS  R31,@0+(@1)+1
	LDS  R22,@0+(@1)+2
	LDS  R23,@0+(@1)+3
	.ENDM

	.MACRO __GETBRMN
	LDS  R@0,@1+(@2)
	.ENDM

	.MACRO __GETWRMN
	LDS  R@0,@2+(@3)
	LDS  R@1,@2+(@3)+1
	.ENDM

	.MACRO __GETWRZ
	LDD  R@0,Z+@2
	LDD  R@1,Z+@2+1
	.ENDM

	.MACRO __GETD2Z
	LDD  R26,Z+@0
	LDD  R27,Z+@0+1
	LDD  R24,Z+@0+2
	LDD  R25,Z+@0+3
	.ENDM

	.MACRO __GETB2MN
	LDS  R26,@0+(@1)
	.ENDM

	.MACRO __GETW2MN
	LDS  R26,@0+(@1)
	LDS  R27,@0+(@1)+1
	.ENDM

	.MACRO __GETD2MN
	LDS  R26,@0+(@1)
	LDS  R27,@0+(@1)+1
	LDS  R24,@0+(@1)+2
	LDS  R25,@0+(@1)+3
	.ENDM

	.MACRO __PUTB1MN
	STS  @0+(@1),R30
	.ENDM

	.MACRO __PUTW1MN
	STS  @0+(@1),R30
	STS  @0+(@1)+1,R31
	.ENDM

	.MACRO __PUTD1MN
	STS  @0+(@1),R30
	STS  @0+(@1)+1,R31
	STS  @0+(@1)+2,R22
	STS  @0+(@1)+3,R23
	.ENDM

	.MACRO __PUTB1EN
	LDI  R26,LOW(@0+(@1))
	LDI  R27,HIGH(@0+(@1))
	RCALL __EEPROMWRB
	.ENDM

	.MACRO __PUTW1EN
	LDI  R26,LOW(@0+(@1))
	LDI  R27,HIGH(@0+(@1))
	RCALL __EEPROMWRW
	.ENDM

	.MACRO __PUTD1EN
	LDI  R26,LOW(@0+(@1))
	LDI  R27,HIGH(@0+(@1))
	RCALL __EEPROMWRD
	.ENDM

	.MACRO __PUTBR0MN
	STS  @0+(@1),R0
	.ENDM

	.MACRO __PUTBMRN
	STS  @0+(@1),R@2
	.ENDM

	.MACRO __PUTWMRN
	STS  @0+(@1),R@2
	STS  @0+(@1)+1,R@3
	.ENDM

	.MACRO __PUTBZR
	STD  Z+@1,R@0
	.ENDM

	.MACRO __PUTWZR
	STD  Z+@2,R@0
	STD  Z+@2+1,R@1
	.ENDM

	.MACRO __GETW1R
	MOV  R30,R@0
	MOV  R31,R@1
	.ENDM

	.MACRO __GETW2R
	MOV  R26,R@0
	MOV  R27,R@1
	.ENDM

	.MACRO __GETWRN
	LDI  R@0,LOW(@2)
	LDI  R@1,HIGH(@2)
	.ENDM

	.MACRO __PUTW1R
	MOV  R@0,R30
	MOV  R@1,R31
	.ENDM

	.MACRO __PUTW2R
	MOV  R@0,R26
	MOV  R@1,R27
	.ENDM

	.MACRO __ADDWRN
	SUBI R@0,LOW(-@2)
	SBCI R@1,HIGH(-@2)
	.ENDM

	.MACRO __ADDWRR
	ADD  R@0,R@2
	ADC  R@1,R@3
	.ENDM

	.MACRO __SUBWRN
	SUBI R@0,LOW(@2)
	SBCI R@1,HIGH(@2)
	.ENDM

	.MACRO __SUBWRR
	SUB  R@0,R@2
	SBC  R@1,R@3
	.ENDM

	.MACRO __ANDWRN
	ANDI R@0,LOW(@2)
	ANDI R@1,HIGH(@2)
	.ENDM

	.MACRO __ANDWRR
	AND  R@0,R@2
	AND  R@1,R@3
	.ENDM

	.MACRO __ORWRN
	ORI  R@0,LOW(@2)
	ORI  R@1,HIGH(@2)
	.ENDM

	.MACRO __ORWRR
	OR   R@0,R@2
	OR   R@1,R@3
	.ENDM

	.MACRO __EORWRR
	EOR  R@0,R@2
	EOR  R@1,R@3
	.ENDM

	.MACRO __GETWRS
	LDD  R@0,Y+@2
	LDD  R@1,Y+@2+1
	.ENDM

	.MACRO __PUTBSR
	STD  Y+@1,R@0
	.ENDM

	.MACRO __PUTWSR
	STD  Y+@2,R@0
	STD  Y+@2+1,R@1
	.ENDM

	.MACRO __MOVEWRR
	MOV  R@0,R@2
	MOV  R@1,R@3
	.ENDM

	.MACRO __INWR
	IN   R@0,@2
	IN   R@1,@2+1
	.ENDM

	.MACRO __OUTWR
	OUT  @2+1,R@1
	OUT  @2,R@0
	.ENDM

	.MACRO __CALL1MN
	LDS  R30,@0+(@1)
	LDS  R31,@0+(@1)+1
	ICALL
	.ENDM

	.MACRO __CALL1FN
	LDI  R30,LOW(2*@0+(@1))
	LDI  R31,HIGH(2*@0+(@1))
	RCALL __GETW1PF
	ICALL
	.ENDM

	.MACRO __CALL2EN
	LDI  R26,LOW(@0+(@1))
	LDI  R27,HIGH(@0+(@1))
	RCALL __EEPROMRDW
	ICALL
	.ENDM

	.MACRO __GETW1STACK
	IN   R26,SPL
	IN   R27,SPH
	ADIW R26,@0+1
	LD   R30,X+
	LD   R31,X
	.ENDM

	.MACRO __GETD1STACK
	IN   R26,SPL
	IN   R27,SPH
	ADIW R26,@0+1
	LD   R30,X+
	LD   R31,X+
	LD   R22,X
	.ENDM

	.MACRO __NBST
	BST  R@0,@1
	IN   R30,SREG
	LDI  R31,0x40
	EOR  R30,R31
	OUT  SREG,R30
	.ENDM


	.MACRO __PUTB1SN
	LDD  R26,Y+@0
	LDD  R27,Y+@0+1
	SUBI R26,LOW(-@1)
	SBCI R27,HIGH(-@1)
	ST   X,R30
	.ENDM

	.MACRO __PUTW1SN
	LDD  R26,Y+@0
	LDD  R27,Y+@0+1
	SUBI R26,LOW(-@1)
	SBCI R27,HIGH(-@1)
	ST   X+,R30
	ST   X,R31
	.ENDM

	.MACRO __PUTD1SN
	LDD  R26,Y+@0
	LDD  R27,Y+@0+1
	SUBI R26,LOW(-@1)
	SBCI R27,HIGH(-@1)
	RCALL __PUTDP1
	.ENDM

	.MACRO __PUTB1SNS
	LDD  R26,Y+@0
	LDD  R27,Y+@0+1
	ADIW R26,@1
	ST   X,R30
	.ENDM

	.MACRO __PUTW1SNS
	LDD  R26,Y+@0
	LDD  R27,Y+@0+1
	ADIW R26,@1
	ST   X+,R30
	ST   X,R31
	.ENDM

	.MACRO __PUTD1SNS
	LDD  R26,Y+@0
	LDD  R27,Y+@0+1
	ADIW R26,@1
	RCALL __PUTDP1
	.ENDM

	.MACRO __PUTB1PMN
	LDS  R26,@0
	LDS  R27,@0+1
	SUBI R26,LOW(-@1)
	SBCI R27,HIGH(-@1)
	ST   X,R30
	.ENDM

	.MACRO __PUTW1PMN
	LDS  R26,@0
	LDS  R27,@0+1
	SUBI R26,LOW(-@1)
	SBCI R27,HIGH(-@1)
	ST   X+,R30
	ST   X,R31
	.ENDM

	.MACRO __PUTD1PMN
	LDS  R26,@0
	LDS  R27,@0+1
	SUBI R26,LOW(-@1)
	SBCI R27,HIGH(-@1)
	RCALL __PUTDP1
	.ENDM

	.MACRO __PUTB1PMNS
	LDS  R26,@0
	LDS  R27,@0+1
	ADIW R26,@1
	ST   X,R30
	.ENDM

	.MACRO __PUTW1PMNS
	LDS  R26,@0
	LDS  R27,@0+1
	ADIW R26,@1
	ST   X+,R30
	ST   X,R31
	.ENDM

	.MACRO __PUTD1PMNS
	LDS  R26,@0
	LDS  R27,@0+1
	ADIW R26,@1
	RCALL __PUTDP1
	.ENDM

	.MACRO __PUTB1RN
	MOVW R26,R@0
	SUBI R26,LOW(-@1)
	SBCI R27,HIGH(-@1)
	ST   X,R30
	.ENDM

	.MACRO __PUTW1RN
	MOVW R26,R@0
	SUBI R26,LOW(-@1)
	SBCI R27,HIGH(-@1)
	ST   X+,R30
	ST   X,R31
	.ENDM

	.MACRO __PUTD1RN
	MOVW R26,R@0
	SUBI R26,LOW(-@1)
	SBCI R27,HIGH(-@1)
	RCALL __PUTDP1
	.ENDM

	.MACRO __PUTB1RNS
	MOVW R26,R@0
	ADIW R26,@1
	ST   X,R30
	.ENDM

	.MACRO __PUTW1RNS
	MOVW R26,R@0
	ADIW R26,@1
	ST   X+,R30
	ST   X,R31
	.ENDM

	.MACRO __PUTD1RNS
	MOVW R26,R@0
	ADIW R26,@1
	RCALL __PUTDP1
	.ENDM

	.MACRO __PUTB1RON
	MOV  R26,R@0
	MOV  R27,R@1
	SUBI R26,LOW(-@2)
	SBCI R27,HIGH(-@2)
	ST   X,R30
	.ENDM

	.MACRO __PUTW1RON
	MOV  R26,R@0
	MOV  R27,R@1
	SUBI R26,LOW(-@2)
	SBCI R27,HIGH(-@2)
	ST   X+,R30
	ST   X,R31
	.ENDM

	.MACRO __PUTD1RON
	MOV  R26,R@0
	MOV  R27,R@1
	SUBI R26,LOW(-@2)
	SBCI R27,HIGH(-@2)
	RCALL __PUTDP1
	.ENDM

	.MACRO __PUTB1RONS
	MOV  R26,R@0
	MOV  R27,R@1
	ADIW R26,@2
	ST   X,R30
	.ENDM

	.MACRO __PUTW1RONS
	MOV  R26,R@0
	MOV  R27,R@1
	ADIW R26,@2
	ST   X+,R30
	ST   X,R31
	.ENDM

	.MACRO __PUTD1RONS
	MOV  R26,R@0
	MOV  R27,R@1
	ADIW R26,@2
	RCALL __PUTDP1
	.ENDM


	.MACRO __GETB1SX
	MOVW R30,R28
	SUBI R30,LOW(-@0)
	SBCI R31,HIGH(-@0)
	LD   R30,Z
	.ENDM

	.MACRO __GETB1HSX
	MOVW R30,R28
	SUBI R30,LOW(-@0)
	SBCI R31,HIGH(-@0)
	LD   R31,Z
	.ENDM

	.MACRO __GETW1SX
	MOVW R30,R28
	SUBI R30,LOW(-@0)
	SBCI R31,HIGH(-@0)
	LD   R0,Z+
	LD   R31,Z
	MOV  R30,R0
	.ENDM

	.MACRO __GETD1SX
	MOVW R30,R28
	SUBI R30,LOW(-@0)
	SBCI R31,HIGH(-@0)
	LD   R0,Z+
	LD   R1,Z+
	LD   R22,Z+
	LD   R23,Z
	MOVW R30,R0
	.ENDM

	.MACRO __GETB2SX
	MOVW R26,R28
	SUBI R26,LOW(-@0)
	SBCI R27,HIGH(-@0)
	LD   R26,X
	.ENDM

	.MACRO __GETW2SX
	MOVW R26,R28
	SUBI R26,LOW(-@0)
	SBCI R27,HIGH(-@0)
	LD   R0,X+
	LD   R27,X
	MOV  R26,R0
	.ENDM

	.MACRO __GETD2SX
	MOVW R26,R28
	SUBI R26,LOW(-@0)
	SBCI R27,HIGH(-@0)
	LD   R0,X+
	LD   R1,X+
	LD   R24,X+
	LD   R25,X
	MOVW R26,R0
	.ENDM

	.MACRO __GETBRSX
	MOVW R30,R28
	SUBI R30,LOW(-@1)
	SBCI R31,HIGH(-@1)
	LD   R@0,Z
	.ENDM

	.MACRO __GETWRSX
	MOVW R30,R28
	SUBI R30,LOW(-@2)
	SBCI R31,HIGH(-@2)
	LD   R@0,Z+
	LD   R@1,Z
	.ENDM

	.MACRO __GETBRSX2
	MOVW R26,R28
	SUBI R26,LOW(-@1)
	SBCI R27,HIGH(-@1)
	LD   R@0,X
	.ENDM

	.MACRO __GETWRSX2
	MOVW R26,R28
	SUBI R26,LOW(-@2)
	SBCI R27,HIGH(-@2)
	LD   R@0,X+
	LD   R@1,X
	.ENDM

	.MACRO __LSLW8SX
	MOVW R30,R28
	SUBI R30,LOW(-@0)
	SBCI R31,HIGH(-@0)
	LD   R31,Z
	CLR  R30
	.ENDM

	.MACRO __PUTB1SX
	MOVW R26,R28
	SUBI R26,LOW(-@0)
	SBCI R27,HIGH(-@0)
	ST   X,R30
	.ENDM

	.MACRO __PUTW1SX
	MOVW R26,R28
	SUBI R26,LOW(-@0)
	SBCI R27,HIGH(-@0)
	ST   X+,R30
	ST   X,R31
	.ENDM

	.MACRO __PUTD1SX
	MOVW R26,R28
	SUBI R26,LOW(-@0)
	SBCI R27,HIGH(-@0)
	ST   X+,R30
	ST   X+,R31
	ST   X+,R22
	ST   X,R23
	.ENDM

	.MACRO __CLRW1SX
	MOVW R26,R28
	SUBI R26,LOW(-@0)
	SBCI R27,HIGH(-@0)
	ST   X+,R30
	ST   X,R30
	.ENDM

	.MACRO __CLRD1SX
	MOVW R26,R28
	SUBI R26,LOW(-@0)
	SBCI R27,HIGH(-@0)
	ST   X+,R30
	ST   X+,R30
	ST   X+,R30
	ST   X,R30
	.ENDM

	.MACRO __PUTB2SX
	MOVW R30,R28
	SUBI R30,LOW(-@0)
	SBCI R31,HIGH(-@0)
	ST   Z,R26
	.ENDM

	.MACRO __PUTW2SX
	MOVW R30,R28
	SUBI R30,LOW(-@0)
	SBCI R31,HIGH(-@0)
	ST   Z+,R26
	ST   Z,R27
	.ENDM

	.MACRO __PUTD2SX
	MOVW R30,R28
	SUBI R30,LOW(-@0)
	SBCI R31,HIGH(-@0)
	ST   Z+,R26
	ST   Z+,R27
	ST   Z+,R24
	ST   Z,R25
	.ENDM

	.MACRO __PUTBSRX
	MOVW R30,R28
	SUBI R30,LOW(-@1)
	SBCI R31,HIGH(-@1)
	ST   Z,R@0
	.ENDM

	.MACRO __PUTWSRX
	MOVW R30,R28
	SUBI R30,LOW(-@2)
	SBCI R31,HIGH(-@2)
	ST   Z+,R@0
	ST   Z,R@1
	.ENDM

	.MACRO __PUTB1SNX
	MOVW R26,R28
	SUBI R26,LOW(-@0)
	SBCI R27,HIGH(-@0)
	LD   R0,X+
	LD   R27,X
	MOV  R26,R0
	SUBI R26,LOW(-@1)
	SBCI R27,HIGH(-@1)
	ST   X,R30
	.ENDM

	.MACRO __PUTW1SNX
	MOVW R26,R28
	SUBI R26,LOW(-@0)
	SBCI R27,HIGH(-@0)
	LD   R0,X+
	LD   R27,X
	MOV  R26,R0
	SUBI R26,LOW(-@1)
	SBCI R27,HIGH(-@1)
	ST   X+,R30
	ST   X,R31
	.ENDM

	.MACRO __PUTD1SNX
	MOVW R26,R28
	SUBI R26,LOW(-@0)
	SBCI R27,HIGH(-@0)
	LD   R0,X+
	LD   R27,X
	MOV  R26,R0
	SUBI R26,LOW(-@1)
	SBCI R27,HIGH(-@1)
	ST   X+,R30
	ST   X+,R31
	ST   X+,R22
	ST   X,R23
	.ENDM

	.MACRO __MULBRR
	MULS R@0,R@1
	MOVW R30,R0
	.ENDM

	.MACRO __MULBRRU
	MUL  R@0,R@1
	MOVW R30,R0
	.ENDM

	.MACRO __MULBRR0
	MULS R@0,R@1
	.ENDM

	.MACRO __MULBRRU0
	MUL  R@0,R@1
	.ENDM

	.MACRO __MULBNWRU
	LDI  R26,@2
	MUL  R26,R@0
	MOVW R30,R0
	MUL  R26,R@1
	ADD  R31,R0
	.ENDM

	.CSEG
	.ORG 0x00

;START OF CODE MARKER
__START_OF_CODE:

;INTERRUPT VECTORS
	RJMP __RESET
	RJMP 0x00
	RJMP 0x00
	RJMP 0x00
	RJMP _timer2_ovf_isr
	RJMP 0x00
	RJMP 0x00
	RJMP 0x00
	RJMP _timer1_ovf_isr
	RJMP _timer0_ovf_isr
	RJMP 0x00
	RJMP 0x00
	RJMP 0x00
	RJMP 0x00
	RJMP 0x00
	RJMP 0x00
	RJMP 0x00
	RJMP 0x00
	RJMP 0x00

_pp:
	.DB  0x0,0x0,0x0,0x0,0x0,0x0,0x0,0x0
	.DB  0x0,0x0,0x0,0x0,0x0,0x0,0x0,0x0
	.DB  0x0,0x0,0x0,0x0,0x0,0x0,0x0,0x0
	.DB  0x0,0x0,0x0,0x0,0x0,0x0,0x0,0x0
	.DB  0x0,0x0,0x0,0x0,0x0,0x0,0x0,0x0
	.DB  0x0,0x0,0x0,0x0,0x0,0x0,0x0,0x0
	.DB  0x0,0x0,0x0,0x0,0x0,0x0,0x0,0x0
	.DB  0x0,0x0,0x0,0x0,0x0,0x0,0x0,0x0
	.DB  0x80,0xCE,0x80,0xCE,0x80,0xCE,0x80,0xCE
	.DB  0x80,0xCE,0x60,0xCE,0x40,0xCE,0x0,0x0
	.DB  0xE1,0xCE,0xE1,0xCE,0xC1,0xCE,0xC1,0xCE
	.DB  0x81,0xCE,0x61,0xCE,0x41,0xCE,0x80,0xCD
	.DB  0x0,0x0,0x0,0x0,0x0,0x0,0x0,0x0
	.DB  0x0,0x0,0x0,0x0,0x81,0xCD,0xE0,0xCC
	.DB  0x0,0x0,0x0,0x0,0x0,0x0,0x0,0x0
	.DB  0x0,0x0,0x0,0x0,0xE1,0xCC,0x20,0xCC
	.DB  0x0,0x0,0x0,0x0,0x0,0x0,0x0,0x0
	.DB  0x0,0x0,0x0,0x0,0x21,0xCC,0x60,0xCB
	.DB  0xE1,0xCC,0xA1,0xCC,0x61,0xCC,0x21,0xCC
	.DB  0xE1,0xCB,0xA1,0xCB,0x61,0xCB,0xA0,0xCA
	.DB  0xA0,0xCB,0x60,0xCB,0x20,0xCB,0xE0,0xCA
	.DB  0xA0,0xCA,0x60,0xCA,0x20,0xCA,0x0,0x0
	.DB  0x0,0x0,0x0,0x0,0x0,0x0,0x0,0x0
	.DB  0x0,0x0,0x0,0x0,0x0,0x0,0x0,0x0
	.DB  0x0,0x0,0x0,0x0,0x0,0x0,0x0,0x0
	.DB  0x0,0x0,0x0,0x0,0x0,0x0,0x0,0x0
	.DB  0x0,0x0,0x0,0x0,0x66,0xFA,0x46,0xFA
	.DB  0x0,0x0,0x0,0x0,0x0,0x0,0x0,0x0
	.DB  0x0,0x0,0x6,0xFA,0x40,0xD8,0x20,0xD8
	.DB  0xA6,0xF9,0x0,0x0,0x0,0x0,0x0,0x0
	.DB  0xC6,0xF9,0x0,0xD8,0x0,0xD8,0x0,0xD0
	.DB  0x1,0xC8,0xA8,0xE9,0x0,0x0,0x0,0x0
	.DB  0x0,0x0,0xA7,0xF1,0x1,0xC8,0x2,0xC0
	.DB  0x2,0xB8,0x3,0xB0,0xAA,0xD1,0x0,0x0
	.DB  0x0,0x0,0x0,0x0,0xAA,0xD9,0x3,0xB0
	.DB  0x4,0xA8,0x5,0xA0,0x6,0x98,0xAD,0xB1
	.DB  0x0,0x0,0x0,0x0,0xAC,0xC1,0x6,0x98
	.DB  0x6,0x90,0x7,0x88,0x8,0x80,0xAF,0x99
	.DB  0x0,0x0,0xAD,0xB1,0x7,0x88,0x8,0x80
	.DB  0x8,0x78,0x9,0x70,0xB1,0x89,0x0,0x0
	.DB  0xAE,0xA1,0x8,0x78,0x9,0x70,0xA,0x68
	.DB  0xB,0x60,0xB2,0x79,0x0,0x0,0x0,0x0
	.DB  0x0,0x0,0xB1,0x81,0xB,0x58,0xC,0x50
	.DB  0xB3,0x71,0x0,0x0,0x0,0x0,0x0,0x0
	.DB  0x0,0x0,0x0,0x0,0xB4,0x69,0xB5,0x61
	.DB  0x0,0x0,0x0,0x0,0x0,0x0,0x0,0x0
	.DB  0x0,0x0,0x0,0x0,0x0,0x0,0x0,0x0
	.DB  0x0,0x0,0x0,0x0,0x0,0x0,0x0,0x0
	.DB  0x0,0x0,0x0,0x0,0x0,0x0,0x0,0x0
	.DB  0x0,0x0,0x0,0x0,0x0,0x0,0x0,0x0
	.DB  0xB8,0x41,0x0,0x0,0xB8,0x39,0xB8,0x39
	.DB  0xB8,0x39,0xB8,0x39,0xB8,0x39,0xB8,0x39
	.DB  0x11,0x28,0x0,0x0,0x11,0x28,0x11,0x28
	.DB  0x11,0x28,0x11,0x28,0x11,0x28,0x11,0x28
	.DB  0x0,0x0,0x0,0x0,0x0,0x0,0x0,0x0
	.DB  0x0,0x0,0x0,0x0,0x0,0x0,0x0,0x0
	.DB  0x0,0x0,0x0,0x0,0x0,0x0,0x0,0x0
	.DB  0x0,0x0,0x0,0x0,0x0,0x0,0x0,0x0
	.DB  0x0,0x0,0x0,0x0,0x0,0x0,0x0,0x0
	.DB  0x0,0x0,0x0,0x0,0x0,0x0,0x0,0x0
_pp2:
	.DB  0x0,0x0,0x0,0x0,0x0,0x0,0x0,0x0
	.DB  0x0,0x0,0x0,0x0,0x0,0x0,0x0,0x0
	.DB  0x0,0x0,0x0,0x0,0x0,0x0,0x0,0x0
	.DB  0x0,0x0,0x0,0x0,0x0,0x0,0x0,0x0
	.DB  0x0,0x0,0x0,0x0,0x0,0x0,0x0,0x0
	.DB  0x0,0x0,0x0,0x0,0x0,0x0,0x0,0x0
	.DB  0x21,0xAD,0x0,0x0,0x0,0x0,0x0,0x0
	.DB  0x0,0x0,0x0,0x0,0x0,0x0,0x60,0xA3
	.DB  0x0,0x0,0x20,0xA4,0x0,0x0,0x0,0x0
	.DB  0x0,0x0,0x0,0x0,0xE0,0xA2,0x0,0x0
	.DB  0x0,0x0,0x0,0x0,0x40,0xA3,0x0,0xA3
	.DB  0xC0,0xA2,0x80,0xA2,0x0,0x0,0x0,0x0
	.DB  0x0,0x0,0xE0,0xA2,0x80,0xA2,0x0,0x0
	.DB  0x0,0x0,0xC0,0xA1,0x80,0xA1,0x0,0x0
	.DB  0x0,0x0,0x20,0xA2,0x0,0x0,0xA0,0xA1
	.DB  0xE5,0xD2,0x0,0x0,0x0,0xA1,0x0,0x0
	.DB  0x0,0x0,0x80,0xA1,0x0,0x0,0x0,0x0
	.DB  0x0,0x0,0x0,0x0,0x60,0xA0,0x0,0x0
	.DB  0x0,0x0,0xE0,0xA0,0xA0,0xA0,0x80,0xA0
	.DB  0x40,0xA0,0x20,0xA0,0x0,0xA0,0x0,0x0
	.DB  0x0,0x0,0x0,0x0,0x0,0x0,0x0,0x0
	.DB  0x0,0x0,0x0,0x0,0x0,0x0,0x0,0x0
	.DB  0x81,0xA8,0x0,0xA0,0x0,0x98,0x0,0x98
	.DB  0x1,0x90,0x1,0x90,0x2,0x88,0x64,0x90
	.DB  0x62,0xA8,0x0,0x98,0x1,0x90,0x1,0x88
	.DB  0x2,0x80,0x3,0x80,0x3,0x78,0x65,0x78
	.DB  0x63,0x98,0x2,0x88,0x2,0x80,0x3,0x78
	.DB  0x4,0x70,0x4,0x68,0x5,0x60,0x67,0x68
	.DB  0x64,0x88,0x3,0x70,0x4,0x68,0x5,0x60
	.DB  0x5,0x58,0x6,0x58,0x7,0x50,0x69,0x50
	.DB  0x0,0x0,0x5,0x60,0x6,0x58,0x7,0x50
	.DB  0x7,0x48,0x8,0x40,0x9,0x38,0x0,0x0
	.DB  0x0,0x0,0x7,0x48,0x8,0x40,0x9,0x38
	.DB  0x9,0x30,0xA,0x28,0xB,0x20,0x0,0x0
	.DB  0x0,0x0,0x9,0x38,0xA,0x30,0xA,0x28
	.DB  0xB,0x20,0xC,0x18,0xC,0x10,0x0,0x0
	.DB  0x0,0x0,0x0,0x0,0xB,0x18,0x0,0x0
	.DB  0x0,0x0,0xD,0x8,0x0,0x0,0x0,0x0
	.DB  0x0,0x0,0x0,0x0,0xD,0x8,0x0,0x0
	.DB  0x0,0x0,0xE,0x0,0x0,0x0,0x0,0x0
	.DB  0x0,0x0,0x0,0x0,0x0,0x0,0x0,0x0
	.DB  0x0,0x0,0x0,0x0,0x0,0x0,0x0,0x0
	.DB  0x0,0x0,0x0,0x0,0x0,0x0,0x0,0x0
	.DB  0x0,0x0,0x0,0x0,0x0,0x0,0x0,0x0
_pp3:
	.DB  0x0,0x0,0x0,0x0,0x0,0x0,0x0,0x0
	.DB  0x0,0x0,0x0,0x0,0x0,0x0,0x0,0x0
	.DB  0x0,0x0,0x0,0x8,0x0,0x10,0x0,0x10
	.DB  0x0,0x8,0x0,0x0,0x0,0x0,0x0,0x0
	.DB  0x0,0x10,0x0,0x30,0x0,0x50,0x0,0x48
	.DB  0x0,0x20,0x0,0x8,0x0,0x0,0x0,0x0
	.DB  0x0,0x30,0x0,0x78,0x0,0xA8,0x0,0x98
	.DB  0x0,0x58,0x0,0x18,0x0,0x0,0x0,0x0
	.DB  0x0,0x48,0x0,0xA8,0x0,0xE0,0x21,0xD8
	.DB  0x22,0x90,0x24,0x40,0x3,0x10,0x1,0x0
	.DB  0x0,0x50,0x20,0xB8,0x60,0xF0,0xC2,0xF0
	.DB  0xE6,0xB8,0xAA,0x70,0x49,0x30,0x3,0x10
	.DB  0x0,0x48,0x40,0xA8,0x20,0xE1,0x42,0xF2
	.DB  0xA8,0xD2,0xCE,0xA1,0xAE,0x60,0x26,0x20
	.DB  0x20,0x38,0xC0,0x90,0x40,0xD2,0x1,0xF4
	.DB  0x65,0xEC,0x4B,0xC3,0x6D,0x79,0x47,0x28
	.DB  0x60,0x30,0xC0,0x89,0xA0,0xD3,0x40,0xF5
	.DB  0xA2,0xF5,0x66,0xC4,0x28,0x72,0x64,0x20
	.DB  0x0,0x31,0x41,0x8B,0x22,0xCD,0xE3,0xDD
	.DB  0x5,0xCE,0x27,0x9D,0x6,0x4B,0xE2,0x10
	.DB  0x81,0x29,0x23,0x7C,0xC7,0xA5,0xC,0x9E
	.DB  0xE,0x7E,0xED,0x55,0x9,0x24,0x83,0x9
	.DB  0x42,0x19,0xC8,0x4B,0x70,0x5D,0x97,0x45
	.DB  0xB8,0x2D,0xD4,0x1D,0x4C,0xC,0xC4,0x1
	.DB  0xE3,0x8,0xEC,0x1A,0xB7,0x24,0x1D,0x15
	.DB  0x1C,0xD,0xB5,0x4,0x2B,0x3,0x23,0x1
	.DB  0x83,0x0,0x2D,0x2,0xF8,0x3,0x9D,0x4
	.DB  0x39,0x4,0xF0,0x2,0x66,0x1,0x61,0x0
	.DB  0x42,0x0,0x48,0x1,0xB1,0x2,0x55,0x3
	.DB  0xD2,0x2,0x69,0x1,0x62,0x0,0x0,0x0
	.DB  0x20,0x0,0x83,0x0,0x48,0x1,0xAA,0x1
	.DB  0x48,0x1,0x83,0x0,0x0,0x0,0x0,0x0
	.DB  0x0,0x0,0x20,0x0,0x42,0x0,0x62,0x0
	.DB  0x42,0x0,0x20,0x0,0x0,0x0,0x0,0x0
	.DB  0x0,0x0,0x0,0x0,0x0,0x0,0x0,0x0
	.DB  0x0,0x0,0x0,0x0,0x0,0x0,0x0,0x0
_pp4:
	.DB  0xFF,0xFF,0xFF,0xFF,0xFF,0xFF,0xFF,0xFF
	.DB  0xFF,0xFF,0xFF,0xFF,0xFF,0xFF,0xFF,0xFF
	.DB  0xFF,0xFF,0xFF,0xFF,0xFF,0xFF,0xFF,0xFF
	.DB  0xFF,0xFF,0xFF,0xFF,0xFF,0xFF,0xFF,0xFF
	.DB  0xFF,0xFF,0xFF,0xFF,0xFF,0xFF,0xFF,0xFF
	.DB  0xFF,0xFF,0xFF,0xFF,0xFF,0xFF,0xFF,0xFF
	.DB  0xFF,0xFF,0xFF,0xFF,0xFF,0xFF,0xFF,0xFF
	.DB  0xFF,0xFF,0xFF,0xFF,0xFF,0xFF,0xFF,0xFF
	.DB  0xFF,0xFF,0xFF,0xFF,0xFF,0xFF,0xFF,0xFF
	.DB  0xFF,0xFF,0xFF,0xFF,0xFF,0xFF,0xFF,0xFF
	.DB  0xFF,0xFF,0xFF,0xFF,0xFF,0xFF,0xFF,0xFF
	.DB  0xFF,0xFF,0xFF,0xFF,0xFF,0xFF,0xFF,0xFF
	.DB  0xFF,0xFF,0xFF,0xFF,0x0,0x0,0x0,0x0
	.DB  0x0,0x0,0x0,0x0,0xFF,0xFF,0xFF,0xFF
	.DB  0xFF,0xFF,0x0,0x0,0x60,0xC8,0x60,0xC8
	.DB  0x63,0xF4,0x0,0x0,0x0,0x0,0xFF,0xFF
	.DB  0x0,0x0,0x60,0xC8,0x63,0xF4,0x63,0xF4
	.DB  0x63,0xF4,0xFF,0xFF,0xFF,0xFF,0x0,0x0
	.DB  0x60,0xC8,0x63,0xF4,0x60,0xC8,0x60,0xC8
	.DB  0x60,0xC8,0x0,0x0,0xFF,0xFF,0x0,0x0
	.DB  0x63,0xF4,0x63,0xF4,0x60,0xC8,0x60,0xC8
	.DB  0x60,0xC8,0xFF,0xFF,0xFF,0xFF,0x0,0x0
	.DB  0x60,0xC8,0x63,0xF4,0x60,0xC8,0x60,0xC8
	.DB  0x60,0xC8,0x0,0x0,0xFF,0xFF,0x0,0x0
	.DB  0x0,0x0,0x60,0xC8,0x63,0xF4,0x63,0xF4
	.DB  0x63,0xF4,0xFF,0xFF,0xFF,0xFF,0x0,0x0
	.DB  0xFF,0xFF,0x0,0x0,0x60,0xC8,0x60,0xC8
	.DB  0x63,0xF4,0x0,0x0,0x0,0x0,0xFF,0xFF
	.DB  0xFF,0xFF,0xFF,0xFF,0x0,0x0,0x0,0x0
	.DB  0x0,0x0,0x0,0x0,0xFF,0xFF,0xFF,0xFF
	.DB  0xFF,0xFF,0xFF,0xFF,0xFF,0xFF,0xFF,0xFF
	.DB  0xFF,0xFF,0xFF,0xFF,0xFF,0xFF,0xFF,0xFF
	.DB  0xFF,0xFF,0xFF,0xFF,0xFF,0xFF,0xFF,0xFF
	.DB  0xFF,0xFF,0xFF,0xFF,0xFF,0xFF,0xFF,0xFF
	.DB  0xFF,0xFF,0xFF,0xFF,0xFF,0xFF,0xFF,0xFF
	.DB  0xFF,0xFF,0xFF,0xFF,0xFF,0xFF,0xFF,0xFF
	.DB  0xFF,0xFF,0xFF,0xFF,0xFF,0xFF,0xFF,0xFF
	.DB  0xFF,0xFF,0xFF,0xFF,0xFF,0xFF,0xFF,0xFF
	.DB  0xFF,0xFF,0xFF,0xFF,0xFF,0xFF,0xFF,0xFF
	.DB  0xFF,0xFF,0xFF,0xFF,0xFF,0xFF,0xFF,0xFF
_pp5:
	.DB  0x0,0x0,0x0,0x0,0x0,0x0,0x0,0x0
	.DB  0x0,0x0,0x0,0x0,0x0,0x0,0x0,0x0
	.DB  0x0,0x0,0x0,0x0,0x0,0x0,0x0,0x0
	.DB  0x0,0x0,0x0,0x0,0x0,0x0,0x0,0x0
	.DB  0x0,0x0,0x0,0x0,0xD,0xF8,0x0,0x0
	.DB  0x0,0x0,0x0,0x0,0x0,0x0,0xD,0xF8
	.DB  0x0,0x0,0x0,0x0,0xD,0xF8,0x0,0x0
	.DB  0x0,0x0,0x0,0x0,0x0,0x0,0xD,0xF8
	.DB  0xD,0xF8,0xD,0xF8,0xD,0xF8,0xD,0xF8
	.DB  0xD,0xF8,0xD,0xF8,0xD,0xF8,0xD,0xF8
	.DB  0x0,0x0,0x0,0x0,0xD,0xF8,0x0,0x0
	.DB  0x0,0x0,0x0,0x0,0x0,0x0,0x0,0x0
	.DB  0xD,0xF8,0xD,0xF8,0xD,0xF8,0xD,0xF8
	.DB  0xD,0xF8,0xD,0xF8,0xD,0xF8,0xD,0xF8
	.DB  0x0,0x0,0x0,0x0,0x0,0x0,0x0,0x0
	.DB  0x0,0x0,0x0,0x0,0x0,0x0,0x0,0x0
	.DB  0x0,0x0,0x0,0x0,0x0,0x0,0xD,0xF8
	.DB  0xD,0xF8,0xD,0xF8,0xD,0xF8,0x0,0x0
	.DB  0x0,0x0,0x0,0x0,0xD,0xF8,0xD,0xF8
	.DB  0x0,0x0,0x0,0x0,0xD,0xF8,0xD,0xF8
	.DB  0x0,0x0,0x0,0x0,0xD,0xF8,0x0,0x0
	.DB  0x0,0x0,0x0,0x0,0x0,0x0,0xD,0xF8
	.DB  0x0,0x0,0x0,0x0,0x0,0x0,0xD,0xF8
	.DB  0x0,0x0,0x0,0x0,0xD,0xF8,0x0,0x0
	.DB  0xD,0xF8,0xD,0xF8,0xD,0xF8,0xD,0xF8
	.DB  0xD,0xF8,0xD,0xF8,0xD,0xF8,0xD,0xF8
	.DB  0x0,0x0,0x0,0x0,0x0,0x0,0x0,0x0
	.DB  0x0,0x0,0x0,0x0,0x0,0x0,0x0,0x0
	.DB  0x0,0x0,0xFF,0xFF,0xFF,0xFF,0x0,0x0
	.DB  0xFF,0xFF,0xFF,0xFF,0xFF,0xFF,0x0,0x0
	.DB  0xFF,0xFF,0x0,0x0,0x0,0x0,0xFF,0xFF
	.DB  0x0,0x0,0x0,0x0,0x0,0x0,0xFF,0xFF
	.DB  0xFF,0xFF,0x0,0x0,0x0,0x0,0xFF,0xFF
	.DB  0x0,0x0,0x0,0x0,0x0,0x0,0xFF,0xFF
	.DB  0xFF,0xFF,0xFF,0xFF,0xFF,0xFF,0xFF,0xFF
	.DB  0xFF,0xFF,0x0,0x0,0xFF,0xFF,0xFF,0xFF
	.DB  0x0,0x0,0xFF,0xFF,0xFF,0xFF,0x0,0x0
	.DB  0xFF,0xFF,0xFF,0xFF,0xFF,0xFF,0x0,0x0
	.DB  0x0,0x0,0x0,0x0,0x0,0x0,0x0,0x0
	.DB  0x0,0x0,0x0,0x0,0x0,0x0,0x0,0x0
	.DB  0x0,0x0,0x0,0x0,0x0,0x0,0x0,0x0
	.DB  0x0,0x0,0x0,0x0,0x0,0x0,0x0,0x0
_pp6:
	.DB  0x0,0x0,0x0,0x0,0x0,0x0,0xC6,0x1
	.DB  0x56,0x6,0x56,0x6,0x56,0x6,0x27,0x2
	.DB  0x0,0x0,0xE3,0x0,0x8F,0x4,0xF4,0x5
	.DB  0xFB,0x7,0xFB,0x7,0xFB,0x7,0x56,0x6
	.DB  0xA2,0x0,0x96,0x6,0x9B,0x5F,0x5B,0x8F
	.DB  0xDB,0x1F,0xFB,0x7,0xFB,0x7,0x2E,0x4
	.DB  0xCD,0x3,0xDB,0x2F,0xFB,0xDE,0x1B,0x84
	.DB  0xFB,0x8E,0xFB,0x7,0xDB,0x7,0xE3,0x0
	.DB  0x39,0x7,0xFB,0x7,0x9B,0x67,0x1B,0x13
	.DB  0x5B,0x17,0xFB,0x7,0xFB,0x7,0x39,0x7
	.DB  0xF4,0x5,0xFB,0x7,0xDB,0x1F,0xDB,0x2F
	.DB  0xFB,0x7,0xFB,0x7,0xFB,0x7,0x2B,0x3
	.DB  0x85,0x1,0xDB,0x1F,0x1B,0xBF,0xDB,0xDE
	.DB  0x7B,0x6F,0xFB,0x7,0xFB,0x7,0x85,0x1
	.DB  0x0,0x0,0x27,0xA,0x3B,0xB7,0xDB,0x18
	.DB  0xDB,0x46,0xFB,0x7,0xFB,0x7,0xFB,0x7
	.DB  0x0,0x0,0x0,0x0,0x41,0x0,0x66,0x1
	.DB  0xD1,0x4,0xD1,0x4,0xD1,0x4,0x7,0x2
	.DB  0x0,0x0,0x0,0x0,0x0,0x0,0x0,0x0
	.DB  0x0,0x0,0x0,0x0,0x0,0x0,0x0,0x0
	.DB  0x0,0x0,0x20,0x0,0xE4,0x28,0x6C,0x6A
	.DB  0x96,0xCC,0x96,0xCC,0x96,0xCC,0x2A,0x62
	.DB  0x20,0x0,0x2F,0x93,0xDB,0xFD,0xFB,0xFD
	.DB  0xBB,0xFD,0xBB,0xFD,0xBB,0xFD,0xD7,0xD4
	.DB  0x87,0x41,0xDB,0xFD,0xDB,0xE6,0xFB,0xDE
	.DB  0x3B,0xF6,0xBB,0xFD,0x5A,0xED,0x82,0x18
	.DB  0x7A,0xF5,0xDB,0xFD,0x5B,0xD6,0xDB,0x18
	.DB  0xDB,0xE5,0xBB,0xFD,0xBB,0xFD,0x2F,0x8B
	.DB  0x9B,0xFD,0xBB,0xFD,0xBB,0xFD,0x1B,0xE5
	.DB  0xBB,0xFD,0xBB,0xFD,0xBB,0xFD,0x14,0xBC
	.DB  0x4B,0x6A,0xBB,0xFD,0x5B,0xEE,0x9B,0xE6
	.DB  0xDB,0xFD,0xBB,0xFD,0x5A,0xED,0x82,0x18
	.DB  0x61,0x10,0xB5,0xC4,0xBB,0xD6,0x7B,0x6B
	.DB  0x3B,0xE6,0xBB,0xFD,0xBB,0xFD,0xD2,0xAB
	.DB  0x0,0x0,0x41,0x8,0x9,0x4A,0x91,0x41
	.DB  0x9B,0xF5,0xBB,0xFD,0xBB,0xFD,0x70,0x9B
	.DB  0x0,0x0,0x0,0x0,0x0,0x0,0x20,0x0
	.DB  0x41,0x8,0x41,0x8,0x41,0x8,0x0,0x0
	.DB  0x0,0x0,0x0,0x0,0x0,0x0,0x0,0x0
	.DB  0x0,0x0,0x0,0x0,0x0,0x0,0x0,0x0
	.DB  0x0,0x0,0x0,0x0,0x0,0x58,0x0,0x70
	.DB  0x0,0xE8,0x0,0xE8,0x0,0xE8,0x0,0xA0
	.DB  0x0,0x0,0x0,0x70,0xE3,0xF8,0xE7,0xF1
	.DB  0x82,0xF8,0x0,0xF8,0x0,0xF8,0x0,0xD8
	.DB  0x0,0x20,0x20,0xF8,0xD7,0xE5,0x7B,0xCE
	.DB  0x72,0xE4,0x0,0xF8,0x0,0xF8,0x0,0x28
	.DB  0x0,0xB8,0x20,0xF8,0xF3,0xE4,0xBB,0x31
	.DB  0xE,0xBA,0x0,0xF8,0x0,0xF8,0x0,0xB8
	.DB  0x0,0xB8,0x0,0xF8,0x0,0xF8,0x0,0xF8
	.DB  0x0,0xF8,0x0,0xF8,0x0,0xF8,0x0,0xC0
	.DB  0x0,0x20,0x0,0xF8,0xAE,0xEB,0xF7,0xE5
	.DB  0x8A,0xF2,0x0,0xF8,0x0,0xF8,0x0,0x28
	.DB  0x0,0x0,0x20,0x78,0x9A,0xE6,0x5B,0x6B
	.DB  0x34,0xC4,0x0,0xF8,0x0,0xF8,0x0,0xC8
	.DB  0x0,0x0,0x0,0x0,0x4,0x49,0xA9,0x38
	.DB  0x3,0xE0,0x0,0xF8,0x0,0xF8,0x0,0xB0
	.DB  0x0,0x0,0x0,0x0,0x0,0x0,0x0,0x0
	.DB  0x0,0x0,0x0,0x0,0x0,0x0,0x0,0x0
	.DB  0x0,0x0,0x0,0x0,0x0,0x0,0x20,0x0
	.DB  0x20,0x0,0x20,0x0,0x0,0x0,0x0,0x0
	.DB  0x0,0x0,0x80,0x10,0x0,0x84,0xE0,0xFF
	.DB  0xE0,0xFF,0x60,0xCE,0xC0,0x5A,0x0,0x0
	.DB  0x0,0x0,0x40,0xCE,0xE0,0xFF,0xE0,0xFF
	.DB  0xE0,0xFF,0xE0,0xFF,0xC0,0xFF,0x80,0x52
	.DB  0x80,0x52,0xA0,0xF7,0xE0,0xFF,0x80,0xF7
	.DB  0x20,0x63,0xE0,0xFF,0xE0,0xFF,0xE0,0xBD
	.DB  0x80,0x73,0xE0,0xFF,0xE0,0xFF,0x80,0xD6
	.DB  0xE0,0x39,0xC0,0xFF,0xE0,0xFF,0x20,0xE7
	.DB  0x80,0x73,0xE0,0xFF,0xE0,0xFF,0x80,0x31
	.DB  0x0,0x0,0xE0,0xDE,0xE0,0xFF,0x20,0xE7
	.DB  0x0,0x0,0xA0,0xD6,0x40,0xEF,0x0,0x21
	.DB  0x0,0x0,0x60,0x8C,0xE0,0xFF,0xA0,0x52
	.DB  0x0,0x0,0x40,0x4A,0x80,0xB5,0x0,0x0
	.DB  0x0,0x0,0x20,0x21,0xA0,0xB5,0x80,0x10
	.DB  0x0,0x0,0x0,0x0,0x0,0x0,0x0,0x0
	.DB  0x0,0x0,0x0,0x0,0x0,0x0,0x0,0x0
_pp7:
	.DB  0x0,0x0,0x0,0x0,0x0,0x0,0x0,0x0
	.DB  0x0,0x0,0x0,0x0,0x0,0x0,0x0,0x0
	.DB  0xE0,0x5A,0x60,0x8C,0x0,0x0,0x0,0x0
	.DB  0x0,0x0,0x0,0x0,0x0,0x0,0x0,0x0
	.DB  0xA0,0xDE,0x40,0xEF,0x0,0x5A,0x20,0x8
	.DB  0x0,0x0,0x0,0x0,0x0,0x0,0x0,0x0
	.DB  0x80,0xD6,0xE0,0xFF,0x80,0xFD,0xE0,0xD1
	.DB  0x0,0x40,0x2,0x38,0x7,0x20,0x2,0x0
	.DB  0x80,0x52,0xA0,0xFF,0x80,0xFD,0x40,0xFA
	.DB  0x0,0xD8,0x6,0xB0,0xF,0x50,0x12,0x8
	.DB  0x0,0x0,0x60,0x6B,0x40,0xF5,0x40,0xFA
	.DB  0x0,0xF8,0x6,0xB0,0xF,0x50,0x13,0x8
	.DB  0x0,0x0,0x0,0x0,0x0,0x8B,0x40,0xFA
	.DB  0x0,0xF8,0x6,0xB0,0xC,0x40,0x3,0x0
	.DB  0x0,0x0,0x60,0x29,0x0,0xED,0x40,0xFA
	.DB  0x0,0xF8,0x4,0x70,0x0,0x0,0x0,0x0
	.DB  0x0,0x0,0x0,0x0,0x0,0x8B,0x40,0xFA
	.DB  0x0,0xF8,0x6,0xA8,0xA,0x30,0x1,0x0
	.DB  0x0,0x0,0x80,0x52,0x20,0xED,0x40,0xFA
	.DB  0x0,0xF8,0x6,0xB0,0xF,0x50,0x11,0x8
	.DB  0x20,0x42,0x80,0xF7,0x80,0xFD,0x40,0xFA
	.DB  0x0,0xE8,0x6,0xB0,0xF,0x50,0x14,0x8
	.DB  0x0,0xC6,0xE0,0xFF,0x80,0xFD,0x20,0xEA
	.DB  0x0,0x50,0x3,0x50,0x9,0x30,0x3,0x0
	.DB  0x40,0xEF,0xA0,0xFF,0xC0,0x7A,0x20,0x10
	.DB  0x0,0x0,0x0,0x0,0x0,0x0,0x0,0x0
	.DB  0x20,0x63,0xE0,0x9C,0x0,0x0,0x0,0x0
	.DB  0x0,0x0,0x0,0x0,0x0,0x0,0x0,0x0
	.DB  0x0,0x0,0x0,0x0,0x0,0x0,0x0,0x0
	.DB  0x0,0x0,0x0,0x0,0x0,0x0,0x0,0x0
_pp8:
	.DB  0x0,0x0,0x0,0x0,0x0,0x0,0x0,0x0
	.DB  0x0,0x0,0x0,0x0,0x0,0x0,0x0,0x0
	.DB  0x0,0x0,0x0,0x0,0x0,0x0,0x0,0x0
	.DB  0x0,0x0,0x0,0x0,0x0,0x0,0x0,0x0
	.DB  0x0,0x0,0x2C,0x2,0x15,0x2C,0xD4,0x2B
	.DB  0xC4,0x0,0x0,0x0,0x0,0x0,0x0,0x0
	.DB  0x4E,0x2,0x38,0x4,0xB9,0x14,0x3A,0x35
	.DB  0x18,0x4D,0x82,0x0,0x0,0x0,0x0,0x0
	.DB  0xD6,0x3,0x99,0xC,0xFA,0x24,0x7B,0x4D
	.DB  0xDC,0x5D,0x13,0x44,0x0,0x0,0x0,0x0
	.DB  0xF1,0x2,0xB9,0x14,0x3A,0x35,0xBC,0x5D
	.DB  0x3D,0x6E,0x3D,0x76,0x6B,0x22,0x0,0x0
	.DB  0x42,0x0,0x73,0xB,0x1A,0x35,0xBB,0x55
	.DB  0x1D,0x66,0xFC,0x65,0x7B,0x4D,0x2B,0x12
	.DB  0x6,0x1,0x37,0xC,0xFA,0x1C,0x5B,0x3D
	.DB  0x7B,0x4D,0x7B,0x4D,0x98,0x2C,0xC4,0x0
	.DB  0x74,0x1B,0x18,0x4,0x99,0xC,0xDA,0x1C
	.DB  0xFA,0x24,0xDA,0x24,0xE5,0x0,0x0,0x0
	.DB  0x16,0x44,0xF7,0x13,0x17,0x4,0x58,0x4
	.DB  0x79,0xC,0x4D,0x2,0x0,0x0,0x0,0x0
	.DB  0x68,0x1,0x58,0x4C,0xD7,0x1B,0xD7,0x3
	.DB  0xD1,0x2,0x20,0x0,0x0,0x0,0x0,0x0
	.DB  0x0,0x0,0x42,0x8,0x27,0x19,0xE6,0x10
	.DB  0x0,0x0,0x0,0x0,0x0,0x0,0x0,0x0
	.DB  0x22,0x18,0xAD,0xA9,0x34,0xE3,0x93,0xD3
	.DB  0x47,0x51,0x0,0x0,0x0,0x0,0x0,0x0
	.DB  0x8E,0xB1,0xF3,0xEA,0x94,0xEB,0xF5,0xEB
	.DB  0xB7,0xEC,0x5,0x39,0x0,0x0,0x0,0x0
	.DB  0x31,0xDA,0x54,0xEB,0xF5,0xEB,0x76,0xEC
	.DB  0xD7,0xEC,0x54,0xCC,0x21,0x8,0x0,0x0
	.DB  0x49,0x79,0x74,0xEB,0x15,0xEC,0xB7,0xEC
	.DB  0x38,0xED,0x18,0xED,0x2F,0xA3,0x0,0x0
	.DB  0x0,0x0,0x2D,0x9A,0xF5,0xEB,0x76,0xEC
	.DB  0xD7,0xEC,0xB7,0xEC,0x56,0xEC,0xC,0x82
	.DB  0x9,0x71,0xF3,0xEA,0x94,0xEB,0x15,0xEC
	.DB  0x36,0xEC,0x36,0xEC,0xCF,0xAA,0x20,0x0
	.DB  0x53,0xE2,0x52,0xEA,0xF3,0xEA,0x74,0xEB
	.DB  0x94,0xEB,0x32,0xD3,0x21,0x10,0x0,0x0
	.DB  0x31,0xCA,0x33,0xEA,0x12,0xEA,0x93,0xEA
	.DB  0xB3,0xEA,0xE6,0x48,0x0,0x0,0x0,0x0
	.DB  0x23,0x20,0xF0,0xB9,0xF3,0xE9,0x51,0xD9
	.DB  0xA7,0x60,0x0,0x0,0x0,0x0,0x0,0x0
	.DB  0x0,0x0,0x0,0x0,0x0,0x8,0x0,0x0
	.DB  0x0,0x0,0x0,0x0,0x0,0x0,0x0,0x0
	.DB  0x40,0x18,0x24,0x81,0xE7,0xB1,0x8,0xB2
	.DB  0x82,0x48,0x0,0x0,0x0,0x0,0x0,0x0
	.DB  0x44,0x81,0x65,0xA9,0x45,0xB9,0x85,0xC1
	.DB  0x69,0xD2,0x81,0x38,0x0,0x0,0x0,0x0
	.DB  0x65,0x99,0x45,0xB1,0x85,0xC1,0xA5,0xD1
	.DB  0xA5,0xD9,0xE6,0xC1,0x0,0x8,0x0,0x0
	.DB  0xA2,0x50,0x45,0xB1,0x85,0xC9,0xA5,0xD9
	.DB  0x85,0xE1,0xA6,0xE1,0x44,0x99,0x0,0x0
	.DB  0x0,0x0,0xE4,0x78,0x65,0xC1,0xA5,0xD1
	.DB  0xA5,0xD9,0xA5,0xD9,0xA5,0xC9,0xC3,0x68
	.DB  0xE2,0x50,0x65,0xA9,0x45,0xB9,0x85,0xC1
	.DB  0xA5,0xC9,0x85,0xC9,0xE4,0x80,0x0,0x0
	.DB  0x48,0xA2,0xA5,0xA1,0x65,0xA9,0x45,0xB1
	.DB  0x45,0xB9,0x25,0xA1,0x0,0x8,0x0,0x0
	.DB  0x28,0x8A,0x48,0xA2,0xA5,0xA1,0x85,0xA1
	.DB  0x85,0xA9,0x61,0x30,0x0,0x0,0x0,0x0
	.DB  0x20,0x10,0xC6,0x79,0xE7,0x99,0x64,0x89
	.DB  0xA1,0x38,0x0,0x0,0x0,0x0,0x0,0x0
_pp9:
	.DB  0x0,0x0,0x0,0x0,0x0,0x0,0x0,0x0
	.DB  0x0,0x0,0x0,0x0,0x0,0x0,0x0,0x0
	.DB  0x0,0x0,0x0,0x0,0x0,0x0,0x0,0x0
	.DB  0x0,0x0,0x0,0x0,0x0,0x0,0x0,0x0
	.DB  0x0,0x0,0x0,0x0,0x0,0x0,0x0,0x0
	.DB  0x0,0x0,0x0,0x0,0x0,0x0,0x0,0x0
	.DB  0x0,0x0,0x2,0xE8,0x0,0xD0,0x0,0xD8
	.DB  0x0,0xD8,0x2,0xE8,0x21,0xE0,0x0,0x0
	.DB  0x0,0x0,0x40,0x6B,0x40,0x73,0x60,0xFD
	.DB  0x40,0xFD,0x41,0xFD,0x0,0x0,0x0,0x0
	.DB  0x0,0x0,0x40,0xFD,0x20,0x6B,0x40,0xFD
	.DB  0x60,0xFD,0x20,0x73,0x40,0xFD,0x80,0xF5
	.DB  0x0,0x0,0x0,0x0,0x40,0xFD,0x60,0xF5
	.DB  0x40,0xF5,0x20,0x6B,0x20,0x6B,0x0,0x0
	.DB  0x0,0x0,0x40,0x6B,0x40,0x73,0xA0,0x63
	.DB  0x60,0x73,0x0,0x0,0x0,0x0,0x0,0x0
	.DB  0x0,0x0,0x40,0x6B,0x20,0x73,0x0,0x73
	.DB  0x0,0x73,0x80,0x5B,0x20,0x73,0x0,0x0
	.DB  0x21,0xFD,0x40,0x6B,0x40,0xE0,0x0,0xD8
	.DB  0x40,0xD0,0x20,0xD0,0x40,0x73,0x21,0xFD
	.DB  0x60,0xFD,0x60,0xFD,0x0,0xD8,0x0,0xD8
	.DB  0x0,0xD8,0x0,0xD8,0x80,0xFD,0x60,0xFD
	.DB  0x0,0x0,0x0,0xD0,0x0,0xD8,0x0,0x0
	.DB  0x0,0x0,0x0,0xD8,0x2,0xD0,0x0,0x0
	.DB  0x0,0x0,0x40,0x6B,0x40,0x63,0x0,0x0
	.DB  0x0,0x0,0x60,0x6B,0x40,0x6B,0x0,0x0
	.DB  0x0,0x0,0x0,0x0,0x0,0x0,0x0,0x0
	.DB  0x0,0x0,0x0,0x0,0x0,0x0,0x0,0x0
	.DB  0x0,0x0,0x0,0x0,0x0,0x0,0x0,0x0
	.DB  0x0,0x0,0x0,0x0,0x0,0x0,0x0,0x0
	.DB  0x0,0x0,0x0,0x0,0x0,0x0,0x0,0x0
	.DB  0x0,0x0,0x0,0x0,0x0,0x0,0x0,0x0
_pp10:
	.DB  0x0,0x0,0x0,0x0,0x0,0x0,0x0,0x0
	.DB  0x0,0x0,0x0,0x0,0x0,0x0,0x0,0x0
	.DB  0x0,0x0,0x0,0x0,0x0,0x0,0x20,0x8
	.DB  0xC3,0x80,0xA2,0x88,0x20,0x10,0x0,0x0
	.DB  0x0,0x0,0x0,0x0,0x0,0x0,0xC3,0x80
	.DB  0x24,0xF9,0xC3,0xF8,0xE3,0xB0,0x20,0x10
	.DB  0x0,0x0,0x0,0x0,0x20,0x8,0xC3,0xA8
	.DB  0xC2,0xF0,0x82,0xD0,0xC3,0xF0,0x82,0x80
	.DB  0x0,0x0,0xC0,0x3B,0x61,0x53,0x83,0xB0
	.DB  0x62,0xF0,0x82,0xD8,0x82,0xD0,0x82,0xB8
	.DB  0xE0,0x32,0xE0,0x97,0x0,0x44,0x42,0xB0
	.DB  0x62,0xF0,0x82,0xE0,0x82,0xD0,0x82,0xB8
	.DB  0xA0,0x6E,0xE0,0x9F,0x20,0x12,0x3,0x98
	.DB  0xA2,0xF8,0x82,0xE0,0x61,0xD8,0x82,0xC0
	.DB  0xE1,0x54,0xE0,0x43,0x40,0x0,0x83,0xA8
	.DB  0x82,0xF8,0x61,0xE0,0x82,0xF8,0x61,0x78
	.DB  0x0,0x0,0x0,0x0,0x0,0x0,0x82,0x70
	.DB  0xE3,0xF8,0x82,0xF8,0x82,0xB0,0x0,0x0
	.DB  0x0,0x0,0x0,0x0,0x0,0x0,0x0,0x0
	.DB  0x41,0x68,0x41,0x70,0x0,0x0,0x0,0x0
	.DB  0x0,0x0,0x0,0x0,0x0,0x0,0x0,0x0
	.DB  0x0,0x0,0x0,0x0,0x0,0x0,0x0,0x0
_pp11:
	.DB  0x0,0x0,0x0,0x0,0x0,0x0,0x0,0x0
	.DB  0x0,0x0,0x0,0x0,0x0,0x0,0x0,0x0
	.DB  0x0,0x0,0x0,0x0,0x0,0x0,0x0,0x0
	.DB  0xE4,0x48,0x0,0x0,0x0,0x0,0x0,0x0
	.DB  0x0,0x0,0x0,0x0,0x46,0x69,0xEA,0xC1
	.DB  0xB,0xDA,0xC9,0xA1,0xA2,0x30,0x0,0x0
	.DB  0x0,0x0,0x68,0x91,0x6C,0xE2,0x2C,0xEA
	.DB  0x2C,0xEA,0x6C,0xEA,0x2B,0xDA,0x0,0x0
	.DB  0x82,0x28,0xEA,0xC9,0x8D,0xEA,0x2C,0xEA
	.DB  0x2C,0xEA,0x4C,0xEA,0x6C,0xF2,0x46,0x71
	.DB  0xE4,0x50,0xAB,0x61,0x2D,0x62,0x4C,0xEA
	.DB  0x2C,0xEA,0xC,0x82,0x2D,0x62,0xC9,0xA9
	.DB  0xE5,0x50,0x6A,0x39,0xED,0x31,0xC,0xAA
	.DB  0xB,0xBA,0xED,0x31,0xED,0x39,0xC9,0xA1
	.DB  0x27,0x51,0x8B,0x29,0xAC,0x29,0x6A,0x59
	.DB  0x8A,0x69,0xAC,0x29,0xCC,0x31,0xC,0xA2
	.DB  0xE6,0x48,0xAC,0x29,0xFF,0xFF,0x4A,0x39
	.DB  0x49,0x49,0xFF,0xFF,0xAC,0x29,0x2C,0x92
	.DB  0xA3,0x38,0xAC,0x31,0xAC,0x29,0x8A,0x69
	.DB  0xB,0xA2,0xAC,0x29,0xCD,0x31,0x47,0x61
	.DB  0x82,0x28,0xAB,0x61,0xCC,0x39,0xCA,0xA9
	.DB  0xB,0xD2,0xED,0x49,0xD,0x5A,0x25,0x61
	.DB  0x0,0x0,0x68,0x81,0x4C,0xCA,0x2C,0xEA
	.DB  0x2C,0xEA,0x4C,0xE2,0x2B,0xCA,0x0,0x0
	.DB  0x0,0x0,0x0,0x0,0x88,0x81,0xEA,0xC9
	.DB  0x2C,0xEA,0x4C,0xD2,0xA2,0x30,0x0,0x0
	.DB  0x0,0x0,0x0,0x0,0x0,0x0,0xA3,0x38
	.DB  0xE4,0x48,0x0,0x0,0x0,0x0,0x0,0x0
	.DB  0x0,0x0,0x0,0x0,0x0,0x0,0x0,0x0
	.DB  0x0,0x0,0x0,0x0,0x0,0x0,0x0,0x0
_pp12:
	.DB  0x0,0x0,0x0,0x0,0x0,0x0,0x0,0x0
	.DB  0x0,0x0,0x0,0x0,0x0,0x0,0x0,0x0
	.DB  0x0,0x0,0x0,0x0,0x0,0x0,0x0,0x0
	.DB  0x40,0xFF,0xE0,0xFF,0xE0,0xFF,0x0,0x0
	.DB  0x0,0x0,0x0,0x0,0x0,0x0,0x60,0xF4
	.DB  0x60,0xFD,0x0,0x0,0x0,0x0,0x0,0x0
	.DB  0x40,0xF8,0x0,0x0,0xE0,0xF9,0xE0,0xFA
	.DB  0x20,0xFC,0x40,0xFD,0x40,0xFE,0x0,0x0
	.DB  0x0,0x8,0x0,0xF8,0xA0,0xF8,0x0,0x0
	.DB  0x60,0xFA,0xA0,0xFB,0x20,0x0,0xC0,0xFD
	.DB  0x0,0x0,0x20,0x0,0x0,0xF8,0x60,0xF8
	.DB  0x20,0xF9,0x20,0xFA,0x0,0x0,0x60,0xFC
	.DB  0x0,0x0,0x0,0x0,0x2,0xD8,0x1,0xF8
	.DB  0x20,0xF8,0xE0,0xF8,0x0,0x0,0x0,0x0
	.DB  0x0,0x0,0x0,0x0,0x6,0xB0,0x4,0xD0
	.DB  0x1,0xE8,0x0,0xF8,0x0,0x0,0x60,0xF9
	.DB  0x0,0x0,0xE,0x60,0xB,0x80,0x0,0x0
	.DB  0x4,0xC8,0x2,0xE0,0x0,0x0,0x40,0xF8
	.DB  0x14,0x18,0x0,0x0,0xF,0x50,0xC,0x78
	.DB  0x8,0x98,0x5,0xB8,0x3,0xD8,0x0,0x0
	.DB  0x0,0x0,0x0,0x0,0x0,0x0,0x10,0x48
	.DB  0xD,0x68,0x0,0x0,0x0,0x0,0x0,0x0
	.DB  0x0,0x0,0x0,0x0,0x0,0x0,0x0,0x0
	.DB  0x11,0x38,0xE,0x58,0xB,0x80,0x0,0x0
	.DB  0x0,0x0,0x0,0x0,0x0,0x0,0x0,0x0
	.DB  0x0,0x0,0x0,0x0,0x0,0x0,0x0,0x0
	.DB  0x0,0x0,0x0,0x0,0x0,0x0,0x0,0x0
	.DB  0x0,0x0,0x0,0x0,0x0,0x0,0x0,0x0
	.DB  0x0,0x0,0x0,0x0,0x0,0x0,0x0,0x0
	.DB  0x0,0x0,0x0,0x0,0x0,0x0,0x0,0x0
	.DB  0x0,0x0,0x0,0x0,0x0,0x0,0x0,0x0
	.DB  0x0,0x0,0x0,0x0,0x0,0x0,0x0,0x0
_pp13:
	.DB  0x0,0x0,0x0,0x0,0x0,0x0,0x0,0x0
	.DB  0x0,0x0,0x0,0x0,0x0,0x0,0x0,0x0
	.DB  0x0,0x0,0x0,0x0,0x0,0x0,0x0,0x0
	.DB  0x0,0x0,0x0,0x0,0x0,0x0,0x0,0x0
	.DB  0x0,0x0,0x0,0x0,0x40,0x31,0xC1,0x6A
	.DB  0xC1,0x6A,0x20,0x29,0x0,0x0,0x0,0x0
	.DB  0x0,0x0,0xE3,0x80,0x2,0xF5,0x81,0xFE
	.DB  0x81,0xFE,0x22,0xF6,0x42,0x83,0x0,0x0
	.DB  0x23,0x69,0x65,0xE1,0xE2,0xEC,0xA5,0xFE
	.DB  0xA5,0xFE,0x81,0xFE,0x22,0xF6,0x42,0x62
	.DB  0x47,0xCA,0xC6,0xE1,0xE,0xDD,0xFA,0x6C
	.DB  0x58,0x4C,0xCC,0xAD,0x42,0xE6,0x83,0xBC
	.DB  0xA,0xE3,0x7,0xE2,0xF6,0xB4,0xBA,0x5C
	.DB  0xF7,0x33,0xD3,0x5C,0x88,0x55,0xE6,0x8C
	.DB  0x88,0xCA,0xE7,0xE1,0x6E,0xD3,0xD9,0x64
	.DB  0x58,0x4C,0xAF,0x6D,0xA9,0x4D,0xE7,0x3B
	.DB  0x43,0x69,0xA6,0xE1,0x4,0xD9,0xE8,0xB2
	.DB  0xAB,0x6D,0xC9,0x4D,0x68,0x4D,0x3,0x22
	.DB  0x0,0x0,0x3,0x79,0x7,0x7C,0xA9,0x4D
	.DB  0xA9,0x4D,0x69,0x4D,0xC4,0x2A,0x0,0x0
	.DB  0x0,0x0,0x0,0x0,0x21,0x11,0x63,0x22
	.DB  0x43,0x22,0x1,0x11,0x0,0x0,0x0,0x0
	.DB  0x0,0x0,0x0,0x0,0x0,0x0,0x0,0x0
	.DB  0x0,0x0,0x0,0x0,0x0,0x0,0x0,0x0

__RESET:
	CLI
	CLR  R30
	OUT  EECR,R30

;INTERRUPT VECTORS ARE PLACED
;AT THE START OF FLASH
	LDI  R31,1
	OUT  GICR,R31
	OUT  GICR,R30
	OUT  MCUCR,R30

;DISABLE WATCHDOG
	LDI  R31,0x18
	OUT  WDTCR,R31
	OUT  WDTCR,R30

;CLEAR R2-R14
	LDI  R24,(14-2)+1
	LDI  R26,2
	CLR  R27
__CLEAR_REG:
	ST   X+,R30
	DEC  R24
	BRNE __CLEAR_REG

;CLEAR SRAM
	LDI  R24,LOW(__CLEAR_SRAM_SIZE)
	LDI  R25,HIGH(__CLEAR_SRAM_SIZE)
	LDI  R26,__SRAM_START
__CLEAR_SRAM:
	ST   X+,R30
	SBIW R24,1
	BRNE __CLEAR_SRAM

;HARDWARE STACK POINTER INITIALIZATION
	LDI  R30,LOW(__SRAM_END-__HEAP_SIZE)
	OUT  SPL,R30
	LDI  R30,HIGH(__SRAM_END-__HEAP_SIZE)
	OUT  SPH,R30

;DATA STACK POINTER INITIALIZATION
	LDI  R28,LOW(__SRAM_START+__DSTACK_SIZE)
	LDI  R29,HIGH(__SRAM_START+__DSTACK_SIZE)

	RJMP _main

	.ESEG
	.ORG 0

	.DSEG
	.ORG 0xA0

	.CSEG
;#define L PORTD
;#include "led.c"
;flash unsigned char pp[] = {
;0x0,0x0,0x0,0x0,0x0,0x0,0x0,0x0,0x0,0x0,0x0,0x0,0x0,0x0,0x0,0x0,0x0,0x0,0x0,0x0,0x0,0x0,0x0,0x0,0x0,0x0,0x0,0x0,0x0,0x0,0x0,0x0,0x0,0x0,0x0,0x0,0x0,0x0,0x0,0x0,0x0,0x0,0x0,0x0,0x0,0x0,0x0,0x0,0x0,0x0,0x0,0x0,0x0,0x0,0x0,0x0,0x0,0x0,0x0,0x0,0x0,0x0,0x0,0x0,0x80,0xCE,0x80,0xCE,0x80,0xCE,0x80,0xCE,0x80,0xCE,0x60,0xCE,0x40,0xCE,0x0,0x0,0xE1,0xCE,0xE1,0xCE,0xC1,0xCE,0xC1,0xCE,0x81,0xCE,0x61,0xCE,0x41,0xCE,0x80,0xCD,0x0,0x0,0x0,0x0,0x0,0x0,0x0,0x0,0x0,0x0,0x0,0x0,0x81,0xCD,0xE0,0xCC,0x0,0x0,0x0,0x0,0x0,0x0,0x0,0x0,0x0,0x0,0x0,0x0,0xE1,0xCC,0x20,0xCC,0x0,0x0,0x0,0x0,0x0,0x0,0x0,0x0,0x0,0x0,0x0,0x0,0x21,0xCC,0x60,0xCB,0xE1,0xCC,0xA1,0xCC,0x61,0xCC,0x21,0xCC,0xE1,0xCB,0xA1,0xCB,0x61,0xCB,0xA0,0xCA,0xA0,0xCB,0x60,0xCB,0x20,0xCB,0xE0,0xCA,0xA0,0xCA,0x60,0xCA,0x20,0xCA,0x0,0x0,0x0,0x0,0x0,0x0,0x0,0x0,0x0,0x0,0x0,0x0,0x0,0x0,0x0,0x0,0x0,0x0,0x0,0x0,0x0,0x0,0x0,0x0,0x0,0x0,0x0,0x0,0x0,0x0,0x0,0x0,0x0,0x0,0x0,0x0,0x0,0x0,0x66,0xFA,0x46,0xFA,0x0,0x0,0x0,0x0,0x0,0x0,0x0,0x0,0x0,0x0,0x6,0xFA,0x40,0xD8,0x20,0xD8,0xA6,0xF9,0x0,0x0,0x0,0x0,0x0,0x0,0xC6,0xF9,0x0,0xD8,0x0,0xD8,0x0,0xD0,0x1,0xC8,0xA8,0xE9,0x0,0x0,0x0,0x0,0x0,0x0,0xA7,0xF1,0x1,0xC8,0x2,0xC0,0x2,0xB8,0x3,0xB0,0xAA,0xD1,0x0,0x0,0x0,0x0,0x0,0x0,0xAA,0xD9,0x3,0xB0,0x4,0xA8,0x5,0xA0,0x6,0x98,0xAD,0xB1,0x0,0x0,0x0,0x0,0xAC,0xC1,0x6,0x98,0x6,0x90,0x7,0x88,0x8,0x80,0xAF,0x99,0x0,0x0,0xAD,0xB1,0x7,0x88,0x8,0x80,0x8,0x78,0x9,0x70,0xB1,0x89,0x0,0x0,0xAE,0xA1,0x8,0x78,0x9,0x70,0xA,0x68,0xB,0x60,0xB2,0x79,0x0,0x0,0x0,0x0,0x0,0x0,0xB1,0x81,0xB,0x58,0xC,0x50,0xB3,0x71,0x0,0x0,0x0,0x0,0x0,0x0,0x0,0x0,0x0,0x0,0xB4,0x69,0xB5,0x61,0x0,0x0,0x0,0x0,0x0,0x0,0x0,0x0,0x0,0x0,0x0,0x0,0x0,0x0,0x0,0x0,0x0,0x0,0x0,0x0,0x0,0x0,0x0,0x0,0x0,0x0,0x0,0x0,0x0,0x0,0x0,0x0,0x0,0x0,0x0,0x0,0x0,0x0,0x0,0x0,0xB8,0x41,0x0,0x0,0xB8,0x39,0xB8,0x39,0xB8,0x39,0xB8,0x39,0xB8,0x39,0xB8,0x39,0x11,0x28,0x0,0x0,0x11,0x28,0x11,0x28,0x11,0x28,0x11,0x28,0x11,0x28,0x11,0x28,0x0,0x0,0x0,0x0,0x0,0x0,0x0,0x0,0x0,0x0,0x0,0x0,0x0,0x0,0x0,0x0,0x0,0x0,0x0,0x0,0x0,0x0,0x0,0x0,0x0,0x0,0x0,0x0,0x0,0x0,0x0,0x0,0x0,0x0,0x0,0x0,0x0,0x0,0x0,0x0,0x0,0x0,0x0,0x0,0x0,0x0,0x0,0x0
;}; // i love u
;flash unsigned char pp2[] = {0x0,0x0,0x0,0x0,0x0,0x0,0x0,0x0,0x0,0x0,0x0,0x0,0x0,0x0,0x0,0x0,0x0,0x0,0x0,0x0,0x0,0x0,0x0,0x0,0x0,0x0,0x0,0x0,0x0,0x0,0x0,0x0,0x0,0x0,0x0,0x0,0x0,0x0,0x0,0x0,0x0,0x0,0x0,0x0,0x0,0x0,0x0,0x0,0x21,0xAD,0x0,0x0,0x0,0x0,0x0,0x0,0x0,0x0,0x0,0x0,0x0,0x0,0x60,0xA3,0x0,0x0,0x20,0xA4,0x0,0x0,0x0,0x0,0x0,0x0,0x0,0x0,0xE0,0xA2,0x0,0x0,0x0,0x0,0x0,0x0,0x40,0xA3,0x0,0xA3,0xC0,0xA2,0x80,0xA2,0x0,0x0,0x0,0x0,0x0,0x0,0xE0,0xA2,0x80,0xA2,0x0,0x0,0x0,0x0,0xC0,0xA1,0x80,0xA1,0x0,0x0,0x0,0x0,0x20,0xA2,0x0,0x0,0xA0,0xA1,0xE5,0xD2,0x0,0x0,0x0,0xA1,0x0,0x0,0x0,0x0,0x80,0xA1,0x0,0x0,0x0,0x0,0x0,0x0,0x0,0x0,0x60,0xA0,0x0,0x0,0x0,0x0,0xE0,0xA0,0xA0,0xA0,0x80,0xA0,0x40,0xA0,0x20,0xA0,0x0,0xA0,0x0,0x0,0x0,0x0,0x0,0x0,0x0,0x0,0x0,0x0,0x0,0x0,0x0,0x0,0x0,0x0,0x0,0x0,0x81,0xA8,0x0,0xA0,0x0,0x98,0x0,0x98,0x1,0x90,0x1,0x90,0x2,0x88,0x64,0x90,0x62,0xA8,0x0,0x98,0x1,0x90,0x1,0x88,0x2,0x80,0x3,0x80,0x3,0x78,0x65,0x78,0x63,0x98,0x2,0x88,0x2,0x80,0x3,0x78,0x4,0x70,0x4,0x68,0x5,0x60,0x67,0x68,0x64,0x88,0x3,0x70,0x4,0x68,0x5,0x60,0x5,0x58,0x6,0x58,0x7,0x50,0x69,0x50,0x0,0x0,0x5,0x60,0x6,0x58,0x7,0x50,0x7,0x48,0x8,0x40,0x9,0x38,0x0,0x0,0x0,0x0,0x7,0x48,0x8,0x40,0x9,0x38,0x9,0x30,0xA,0x28,0xB,0x20,0x0,0x0,0x0,0x0,0x9,0x38,0xA,0x30,0xA,0x28,0xB,0x20,0xC,0x18,0xC,0x10,0x0,0x0,0x0,0x0,0x0,0x0,0xB,0x18,0x0,0x0,0x0,0x0,0xD,0x8,0x0,0x0,0x0,0x0,0x0,0x0,0x0,0x0,0xD,0x8,0x0,0x0,0x0,0x0,0xE,0x0,0x0,0x0,0x0,0x0,0x0,0x0,0x0,0x0,0x0,0x0,0x0,0x0,0x0,0x0,0x0,0x0,0x0,0x0,0x0,0x0,0x0,0x0,0x0,0x0,0x0,0x0,0x0,0x0,0x0,0x0,0x0,0x0,0x0,0x0,0x0,0x0}; // robot
;flash unsigned char pp3[] = {0x0,0x0,0x0,0x0,0x0,0x0,0x0,0x0,0x0,0x0,0x0,0x0,0x0,0x0,0x0,0x0,0x0,0x0,0x0,0x8,0x0,0x10,0x0,0x10,0x0,0x8,0x0,0x0,0x0,0x0,0x0,0x0,0x0,0x10,0x0,0x30,0x0,0x50,0x0,0x48,0x0,0x20,0x0,0x8,0x0,0x0,0x0,0x0,0x0,0x30,0x0,0x78,0x0,0xA8,0x0,0x98,0x0,0x58,0x0,0x18,0x0,0x0,0x0,0x0,0x0,0x48,0x0,0xA8,0x0,0xE0,0x21,0xD8,0x22,0x90,0x24,0x40,0x3,0x10,0x1,0x0,0x0,0x50,0x20,0xB8,0x60,0xF0,0xC2,0xF0,0xE6,0xB8,0xAA,0x70,0x49,0x30,0x3,0x10,0x0,0x48,0x40,0xA8,0x20,0xE1,0x42,0xF2,0xA8,0xD2,0xCE,0xA1,0xAE,0x60,0x26,0x20,0x20,0x38,0xC0,0x90,0x40,0xD2,0x1,0xF4,0x65,0xEC,0x4B,0xC3,0x6D,0x79,0x47,0x28,0x60,0x30,0xC0,0x89,0xA0,0xD3,0x40,0xF5,0xA2,0xF5,0x66,0xC4,0x28,0x72,0x64,0x20,0x0,0x31,0x41,0x8B,0x22,0xCD,0xE3,0xDD,0x5,0xCE,0x27,0x9D,0x6,0x4B,0xE2,0x10,0x81,0x29,0x23,0x7C,0xC7,0xA5,0xC,0x9E,0xE,0x7E,0xED,0x55,0x9,0x24,0x83,0x9,0x42,0x19,0xC8,0x4B,0x70,0x5D,0x97,0x45,0xB8,0x2D,0xD4,0x1D,0x4C,0xC,0xC4,0x1,0xE3,0x8,0xEC,0x1A,0xB7,0x24,0x1D,0x15,0x1C,0xD,0xB5,0x4,0x2B,0x3,0x23,0x1,0x83,0x0,0x2D,0x2,0xF8,0x3,0x9D,0x4,0x39,0x4,0xF0,0x2,0x66,0x1,0x61,0x0,0x42,0x0,0x48,0x1,0xB1,0x2,0x55,0x3,0xD2,0x2,0x69,0x1,0x62,0x0,0x0,0x0,0x20,0x0,0x83,0x0,0x48,0x1,0xAA,0x1,0x48,0x1,0x83,0x0,0x0,0x0,0x0,0x0,0x0,0x0,0x20,0x0,0x42,0x0,0x62,0x0,0x42,0x0,0x20,0x0,0x0,0x0,0x0,0x0,0x0,0x0,0x0,0x0,0x0,0x0,0x0,0x0,0x0,0x0,0x0,0x0,0x0,0x0,0x0,0x0}; // RGB
;flash unsigned char pp4[] = {0xFF,0xFF,0xFF,0xFF,0xFF,0xFF,0xFF,0xFF,0xFF,0xFF,0xFF,0xFF,0xFF,0xFF,0xFF,0xFF,0xFF,0xFF,0xFF,0xFF,0xFF,0xFF,0xFF,0xFF,0xFF,0xFF,0xFF,0xFF,0xFF,0xFF,0xFF,0xFF,0xFF,0xFF,0xFF,0xFF,0xFF,0xFF,0xFF,0xFF,0xFF,0xFF,0xFF,0xFF,0xFF,0xFF,0xFF,0xFF,0xFF,0xFF,0xFF,0xFF,0xFF,0xFF,0xFF,0xFF,0xFF,0xFF,0xFF,0xFF,0xFF,0xFF,0xFF,0xFF,0xFF,0xFF,0xFF,0xFF,0xFF,0xFF,0xFF,0xFF,0xFF,0xFF,0xFF,0xFF,0xFF,0xFF,0xFF,0xFF,0xFF,0xFF,0xFF,0xFF,0xFF,0xFF,0xFF,0xFF,0xFF,0xFF,0xFF,0xFF,0xFF,0xFF,0xFF,0xFF,0xFF,0xFF,0xFF,0xFF,0x0,0x0,0x0,0x0,0x0,0x0,0x0,0x0,0xFF,0xFF,0xFF,0xFF,0xFF,0xFF,0x0,0x0,0x60,0xC8,0x60,0xC8,0x63,0xF4,0x0,0x0,0x0,0x0,0xFF,0xFF,0x0,0x0,0x60,0xC8,0x63,0xF4,0x63,0xF4,0x63,0xF4,0xFF,0xFF,0xFF,0xFF,0x0,0x0,0x60,0xC8,0x63,0xF4,0x60,0xC8,0x60,0xC8,0x60,0xC8,0x0,0x0,0xFF,0xFF,0x0,0x0,0x63,0xF4,0x63,0xF4,0x60,0xC8,0x60,0xC8,0x60,0xC8,0xFF,0xFF,0xFF,0xFF,0x0,0x0,0x60,0xC8,0x63,0xF4,0x60,0xC8,0x60,0xC8,0x60,0xC8,0x0,0x0,0xFF,0xFF,0x0,0x0,0x0,0x0,0x60,0xC8,0x63,0xF4,0x63,0xF4,0x63,0xF4,0xFF,0xFF,0xFF,0xFF,0x0,0x0,0xFF,0xFF,0x0,0x0,0x60,0xC8,0x60,0xC8,0x63,0xF4,0x0,0x0,0x0,0x0,0xFF,0xFF,0xFF,0xFF,0xFF,0xFF,0x0,0x0,0x0,0x0,0x0,0x0,0x0,0x0,0xFF,0xFF,0xFF,0xFF,0xFF,0xFF,0xFF,0xFF,0xFF,0xFF,0xFF,0xFF,0xFF,0xFF,0xFF,0xFF,0xFF,0xFF,0xFF,0xFF,0xFF,0xFF,0xFF,0xFF,0xFF,0xFF,0xFF,0xFF,0xFF,0xFF,0xFF,0xFF,0xFF,0xFF,0xFF,0xFF,0xFF,0xFF,0xFF,0xFF,0xFF,0xFF,0xFF,0xFF,0xFF,0xFF,0xFF,0xFF,0xFF,0xFF,0xFF,0xFF,0xFF,0xFF,0xFF,0xFF,0xFF,0xFF,0xFF,0xFF,0xFF,0xFF,0xFF,0xFF,0xFF,0xFF,0xFF,0xFF,0xFF,0xFF,0xFF,0xFF,0xFF,0xFF,0xFF,0xFF,0xFF,0xFF,0xFF,0xFF,0xFF,0xFF,0xFF,0xFF}; // mushroom
;flash unsigned char pp5[] = {0x0,0x0,0x0,0x0,0x0,0x0,0x0,0x0,0x0,0x0,0x0,0x0,0x0,0x0,0x0,0x0,0x0,0x0,0x0,0x0,0x0,0x0,0x0,0x0,0x0,0x0,0x0,0x0,0x0,0x0,0x0,0x0,0x0,0x0,0x0,0x0,0xD,0xF8,0x0,0x0,0x0,0x0,0x0,0x0,0x0,0x0,0xD,0xF8,0x0,0x0,0x0,0x0,0xD,0xF8,0x0,0x0,0x0,0x0,0x0,0x0,0x0,0x0,0xD,0xF8,0xD,0xF8,0xD,0xF8,0xD,0xF8,0xD,0xF8,0xD,0xF8,0xD,0xF8,0xD,0xF8,0xD,0xF8,0x0,0x0,0x0,0x0,0xD,0xF8,0x0,0x0,0x0,0x0,0x0,0x0,0x0,0x0,0x0,0x0,0xD,0xF8,0xD,0xF8,0xD,0xF8,0xD,0xF8,0xD,0xF8,0xD,0xF8,0xD,0xF8,0xD,0xF8,0x0,0x0,0x0,0x0,0x0,0x0,0x0,0x0,0x0,0x0,0x0,0x0,0x0,0x0,0x0,0x0,0x0,0x0,0x0,0x0,0x0,0x0,0xD,0xF8,0xD,0xF8,0xD,0xF8,0xD,0xF8,0x0,0x0,0x0,0x0,0x0,0x0,0xD,0xF8,0xD,0xF8,0x0,0x0,0x0,0x0,0xD,0xF8,0xD,0xF8,0x0,0x0,0x0,0x0,0xD,0xF8,0x0,0x0,0x0,0x0,0x0,0x0,0x0,0x0,0xD,0xF8,0x0,0x0,0x0,0x0,0x0,0x0,0xD,0xF8,0x0,0x0,0x0,0x0,0xD,0xF8,0x0,0x0,0xD,0xF8,0xD,0xF8,0xD,0xF8,0xD,0xF8,0xD,0xF8,0xD,0xF8,0xD,0xF8,0xD,0xF8,0x0,0x0,0x0,0x0,0x0,0x0,0x0,0x0,0x0,0x0,0x0,0x0,0x0,0x0,0x0,0x0,0x0,0x0,0xFF,0xFF,0xFF,0xFF,0x0,0x0,0xFF,0xFF,0xFF,0xFF,0xFF,0xFF,0x0,0x0,0xFF,0xFF,0x0,0x0,0x0,0x0,0xFF,0xFF,0x0,0x0,0x0,0x0,0x0,0x0,0xFF,0xFF,0xFF,0xFF,0x0,0x0,0x0,0x0,0xFF,0xFF,0x0,0x0,0x0,0x0,0x0,0x0,0xFF,0xFF,0xFF,0xFF,0xFF,0xFF,0xFF,0xFF,0xFF,0xFF,0xFF,0xFF,0x0,0x0,0xFF,0xFF,0xFF,0xFF,0x0,0x0,0xFF,0xFF,0xFF,0xFF,0x0,0x0,0xFF,0xFF,0xFF,0xFF,0xFF,0xFF,0x0,0x0,0x0,0x0,0x0,0x0,0x0,0x0,0x0,0x0,0x0,0x0,0x0,0x0,0x0,0x0,0x0,0x0,0x0,0x0,0x0,0x0,0x0,0x0,0x0,0x0,0x0,0x0,0x0,0x0,0x0,0x0,0x0,0x0}; // 8bit
;flash unsigned char pp6[] = {0x0,0x0,0x0,0x0,0x0,0x0,0xC6,0x1,0x56,0x6,0x56,0x6,0x56,0x6,0x27,0x2,0x0,0x0,0xE3,0x0,0x8F,0x4,0xF4,0x5,0xFB,0x7,0xFB,0x7,0xFB,0x7,0x56,0x6,0xA2,0x0,0x96,0x6,0x9B,0x5F,0x5B,0x8F,0xDB,0x1F,0xFB,0x7,0xFB,0x7,0x2E,0x4,0xCD,0x3,0xDB,0x2F,0xFB,0xDE,0x1B,0x84,0xFB,0x8E,0xFB,0x7,0xDB,0x7,0xE3,0x0,0x39,0x7,0xFB,0x7,0x9B,0x67,0x1B,0x13,0x5B,0x17,0xFB,0x7,0xFB,0x7,0x39,0x7,0xF4,0x5,0xFB,0x7,0xDB,0x1F,0xDB,0x2F,0xFB,0x7,0xFB,0x7,0xFB,0x7,0x2B,0x3,0x85,0x1,0xDB,0x1F,0x1B,0xBF,0xDB,0xDE,0x7B,0x6F,0xFB,0x7,0xFB,0x7,0x85,0x1,0x0,0x0,0x27,0xA,0x3B,0xB7,0xDB,0x18,0xDB,0x46,0xFB,0x7,0xFB,0x7,0xFB,0x7,0x0,0x0,0x0,0x0,0x41,0x0,0x66,0x1,0xD1,0x4,0xD1,0x4,0xD1,0x4,0x7,0x2,0x0,0x0,0x0,0x0,0x0,0x0,0x0,0x0,0x0,0x0,0x0,0x0,0x0,0x0,0x0,0x0,0x0,0x0,0x20,0x0,0xE4,0x28,0x6C,0x6A,0x96,0xCC,0x96,0xCC,0x96,0xCC,0x2A,0x62,0x20,0x0,0x2F,0x93,0xDB,0xFD,0xFB,0xFD,0xBB,0xFD,0xBB,0xFD,0xBB,0xFD,0xD7,0xD4,0x87,0x41,0xDB,0xFD,0xDB,0xE6,0xFB,0xDE,0x3B,0xF6,0xBB,0xFD,0x5A,0xED,0x82,0x18,0x7A,0xF5,0xDB,0xFD,0x5B,0xD6,0xDB,0x18,0xDB,0xE5,0xBB,0xFD,0xBB,0xFD,0x2F,0x8B,0x9B,0xFD,0xBB,0xFD,0xBB,0xFD,0x1B,0xE5,0xBB,0xFD,0xBB,0xFD,0xBB,0xFD,0x14,0xBC,0x4B,0x6A,0xBB,0xFD,0x5B,0xEE,0x9B,0xE6,0xDB,0xFD,0xBB,0xFD,0x5A,0xED,0x82,0x18,0x61,0x10,0xB5,0xC4,0xBB,0xD6,0x7B,0x6B,0x3B,0xE6,0xBB,0xFD,0xBB,0xFD,0xD2,0xAB,0x0,0x0,0x41,0x8,0x9,0x4A,0x91,0x41,0x9B,0xF5,0xBB,0xFD,0xBB,0xFD,0x70,0x9B,0x0,0x0,0x0,0x0,0x0,0x0,0x20,0x0,0x41,0x8,0x41,0x8,0x41,0x8,0x0,0x0,0x0,0x0,0x0,0x0,0x0,0x0,0x0,0x0,0x0,0x0,0x0,0x0,0x0,0x0,0x0,0x0,0x0,0x0,0x0,0x0,0x0,0x58,0x0,0x70,0x0,0xE8,0x0,0xE8,0x0,0xE8,0x0,0xA0,0x0,0x0,0x0,0x70,0xE3,0xF8,0xE7,0xF1,0x82,0xF8,0x0,0xF8,0x0,0xF8,0x0,0xD8,0x0,0x20,0x20,0xF8,0xD7,0xE5,0x7B,0xCE,0x72,0xE4,0x0,0xF8,0x0,0xF8,0x0,0x28,0x0,0xB8,0x20,0xF8,0xF3,0xE4,0xBB,0x31,0xE,0xBA,0x0,0xF8,0x0,0xF8,0x0,0xB8,0x0,0xB8,0x0,0xF8,0x0,0xF8,0x0,0xF8,0x0,0xF8,0x0,0xF8,0x0,0xF8,0x0,0xC0,0x0,0x20,0x0,0xF8,0xAE,0xEB,0xF7,0xE5,0x8A,0xF2,0x0,0xF8,0x0,0xF8,0x0,0x28,0x0,0x0,0x20,0x78,0x9A,0xE6,0x5B,0x6B,0x34,0xC4,0x0,0xF8,0x0,0xF8,0x0,0xC8,0x0,0x0,0x0,0x0,0x4,0x49,0xA9,0x38,0x3,0xE0,0x0,0xF8,0x0,0xF8,0x0,0xB0,0x0,0x0,0x0,0x0,0x0,0x0,0x0,0x0,0x0,0x0,0x0,0x0,0x0,0x0,0x0,0x0,0x0,0x0,0x0,0x0,0x0,0x0,0x20,0x0,0x20,0x0,0x20,0x0,0x0,0x0,0x0,0x0,0x0,0x0,0x80,0x10,0x0,0x84,0xE0,0xFF,0xE0,0xFF,0x60,0xCE,0xC0,0x5A,0x0,0x0,0x0,0x0,0x40,0xCE,0xE0,0xFF,0xE0,0xFF,0xE0,0xFF,0xE0,0xFF,0xC0,0xFF,0x80,0x52,0x80,0x52,0xA0,0xF7,0xE0,0xFF,0x80,0xF7,0x20,0x63,0xE0,0xFF,0xE0,0xFF,0xE0,0xBD,0x80,0x73,0xE0,0xFF,0xE0,0xFF,0x80,0xD6,0xE0,0x39,0xC0,0xFF,0xE0,0xFF,0x20,0xE7,0x80,0x73,0xE0,0xFF,0xE0,0xFF,0x80,0x31,0x0,0x0,0xE0,0xDE,0xE0,0xFF,0x20,0xE7,0x0,0x0,0xA0,0xD6,0x40,0xEF,0x0,0x21,0x0,0x0,0x60,0x8C,0xE0,0xFF,0xA0,0x52,0x0,0x0,0x40,0x4A,0x80,0xB5,0x0,0x0,0x0,0x0,0x20,0x21,0xA0,0xB5,0x80,0x10,0x0,0x0,0x0,0x0,0x0,0x0,0x0,0x0,0x0,0x0,0x0,0x0,0x0,0x0,0x0,0x0}; // 
;flash unsigned char pp7[] = {0x0,0x0,0x0,0x0,0x0,0x0,0x0,0x0,0x0,0x0,0x0,0x0,0x0,0x0,0x0,0x0,0xE0,0x5A,0x60,0x8C,0x0,0x0,0x0,0x0,0x0,0x0,0x0,0x0,0x0,0x0,0x0,0x0,0xA0,0xDE,0x40,0xEF,0x0,0x5A,0x20,0x8,0x0,0x0,0x0,0x0,0x0,0x0,0x0,0x0,0x80,0xD6,0xE0,0xFF,0x80,0xFD,0xE0,0xD1,0x0,0x40,0x2,0x38,0x7,0x20,0x2,0x0,0x80,0x52,0xA0,0xFF,0x80,0xFD,0x40,0xFA,0x0,0xD8,0x6,0xB0,0xF,0x50,0x12,0x8,0x0,0x0,0x60,0x6B,0x40,0xF5,0x40,0xFA,0x0,0xF8,0x6,0xB0,0xF,0x50,0x13,0x8,0x0,0x0,0x0,0x0,0x0,0x8B,0x40,0xFA,0x0,0xF8,0x6,0xB0,0xC,0x40,0x3,0x0,0x0,0x0,0x60,0x29,0x0,0xED,0x40,0xFA,0x0,0xF8,0x4,0x70,0x0,0x0,0x0,0x0,0x0,0x0,0x0,0x0,0x0,0x8B,0x40,0xFA,0x0,0xF8,0x6,0xA8,0xA,0x30,0x1,0x0,0x0,0x0,0x80,0x52,0x20,0xED,0x40,0xFA,0x0,0xF8,0x6,0xB0,0xF,0x50,0x11,0x8,0x20,0x42,0x80,0xF7,0x80,0xFD,0x40,0xFA,0x0,0xE8,0x6,0xB0,0xF,0x50,0x14,0x8,0x0,0xC6,0xE0,0xFF,0x80,0xFD,0x20,0xEA,0x0,0x50,0x3,0x50,0x9,0x30,0x3,0x0,0x40,0xEF,0xA0,0xFF,0xC0,0x7A,0x20,0x10,0x0,0x0,0x0,0x0,0x0,0x0,0x0,0x0,0x20,0x63,0xE0,0x9C,0x0,0x0,0x0,0x0,0x0,0x0,0x0,0x0,0x0,0x0,0x0,0x0,0x0,0x0,0x0,0x0,0x0,0x0,0x0,0x0,0x0,0x0,0x0,0x0,0x0,0x0,0x0,0x0}; // 
; flash unsigned char pp8[] = {
; 0x0,0x0,0x0,0x0,0x0,0x0,0x0,0x0,0x0,0x0,0x0,0x0,0x0,0x0,0x0,0x0,0x0,0x0,0x0,0x0,0x0,0x0,0x0,0x0,0x0,0x0,0x0,0x0,0x0,0x0,0x0,0x0,0x0,0x0,0x2C,0x2,0x15,0x2C,0xD4,0x2B,0xC4,0x0,0x0,0x0,0x0,0x0,0x0,0x0,0x4E,0x2,0x38,0x4,0xB9,0x14,0x3A,0x35,0x18,0x4D,0x82,0x0,0x0,0x0,0x0,0x0,0xD6,0x3,0x99,0xC,0xFA,0x24,0x7B,0x4D,0xDC,0x5D,0x13,0x44,0x0,0x0,0x0,0x0,0xF1,0x2,0xB9,0x14,0x3A,0x35,0xBC,0x5D,0x3D,0x6E,0x3D,0x76,0x6B,0x22,0x0,0x0,0x42,0x0,0x73,0xB,0x1A,0x35,0xBB,0x55,0x1D,0x66,0xFC,0x65,0x7B,0x4D,0x2B,0x12,0x6,0x1,0x37,0xC,0xFA,0x1C,0x5B,0x3D,0x7B,0x4D,0x7B,0x4D,0x98,0x2C,0xC4,0x0,0x74,0x1B,0x18,0x4,0x99,0xC,0xDA,0x1C,0xFA,0x24,0xDA,0x24,0xE5,0x0,0x0,0x0,0x16,0x44,0xF7,0x13,0x17,0x4,0x58,0x4,0x79,0xC,0x4D,0x2,0x0,0x0,0x0,0x0,0x68,0x1,0x58,0x4C,0xD7,0x1B,0xD7,0x3,0xD1,0x2,0x20,0x0,0x0,0x0,0x0,0x0,0x0,0x0,0x42,0x8,0x27,0x19,0xE6,0x10,0x0,0x0,0x0,0x0,0x0,0x0,0x0,0x0,0x22,0x18,0xAD,0xA9,0x34,0xE3,0x93,0xD3,0x47,0x51,0x0,0x0,0x0,0x0,0x0,0x0,0x8E,0xB1,0xF3,0xEA,0x94,0xEB,0xF5,0xEB,0xB7,0xEC,0x5,0x39,0x0,0x0,0x0,0x0,0x31,0xDA,0x54,0xEB,0xF5,0xEB,0x76,0xEC,0xD7,0xEC,0x54,0xCC,0x21,0x8,0x0,0x0,0x49,0x79,0x74,0xEB,0x15,0xEC,0xB7,0xEC,0x38,0xED,0x18,0xED,0x2F,0xA3,0x0,0x0,0x0,0x0,0x2D,0x9A,0xF5,0xEB,0x76,0xEC,0xD7,0xEC,0xB7,0xEC,0x56,0xEC,0xC,0x82,0x9,0x71,0xF3,0xEA,0x94,0xEB,0x15,0xEC,0x36,0xEC,0x36,0xEC,0xCF,0xAA,0x20,0x0,0x53,0xE2,0x52,0xEA,0xF3,0xEA,0x74,0xEB,0x94,0xEB,0x32,0xD3,0x21,0x10,0x0,0x0,0x31,0xCA,0x33,0xEA,0x12,0xEA,0x93,0xEA,0xB3,0xEA,0xE6,0x48,0x0,0x0,0x0,0x0,0x23,0x20,0xF0,0xB9,0xF3,0xE9,0x51,0xD9,0xA7,0x60,0x0,0x0,0x0,0x0,0x0,0x0,0x0,0x0,0x0,0x0,0x0,0x8,0x0,0x0,0x0,0x0,0x0,0x0,0x0,0x0,0x0,0x0,0x40,0x18,0x24,0x81,0xE7,0xB1,0x8,0xB2,0x82,0x48,0x0,0x0,0x0,0x0,0x0,0x0,0x44,0x81,0x65,0xA9,0x45,0xB9,0x85,0xC1,0x69,0xD2,0x81,0x38,0x0,0x0,0x0,0x0,0x65,0x99,0x45,0xB1,0x85,0xC1,0xA5,0xD1,0xA5,0xD9,0xE6,0xC1,0x0,0x8,0x0,0x0,0xA2,0x50,0x45,0xB1,0x85,0xC9,0xA5,0xD9,0x85,0xE1,0xA6,0xE1,0x44,0x99,0x0,0x0,0x0,0x0,0xE4,0x78,0x65,0xC1,0xA5,0xD1,0xA5,0xD9,0xA5,0xD9,0xA5,0xC9,0xC3,0x68,0xE2,0x50,0x65,0xA9,0x45,0xB9,0x85,0xC1,0xA5,0xC9,0x85,0xC9,0xE4,0x80,0x0,0x0,0x48,0xA2,0xA5,0xA1,0x65,0xA9,0x45,0xB1,0x45,0xB9,0x25,0xA1,0x0,0x8,0x0,0x0,0x28,0x8A,0x48,0xA2,0xA5,0xA1,0x85,0xA1,0x85,0xA9,0x61,0x30,0x0,0x0,0x0,0x0,0x20,0x10,0xC6,0x79,0xE7,0x99,0x64,0x89,0xA1,0x38,0x0,0x0,0x0,0x0,0x0,0x0}; //3 
;  flash unsigned char pp9[] = {0x0,0x0,0x0,0x0,0x0,0x0,0x0,0x0,0x0,0x0,0x0,0x0,0x0,0x0,0x0,0x0,0x0,0x0,0x0,0x0,0x0,0x0,0x0,0x0,0x0,0x0,0x0,0x0,0x0,0x0,0x0,0x0,0x0,0x0,0x0,0x0,0x0,0x0,0x0,0x0,0x0,0x0,0x0,0x0,0x0,0x0,0x0,0x0,0x0,0x0,0x2,0xE8,0x0,0xD0,0x0,0xD8,0x0,0xD8,0x2,0xE8,0x21,0xE0,0x0,0x0,0x0,0x0,0x40,0x6B,0x40,0x73,0x60,0xFD,0x40,0xFD,0x41,0xFD,0x0,0x0,0x0,0x0,0x0,0x0,0x40,0xFD,0x20,0x6B,0x40,0xFD,0x60,0xFD,0x20,0x73,0x40,0xFD,0x80,0xF5,0x0,0x0,0x0,0x0,0x40,0xFD,0x60,0xF5,0x40,0xF5,0x20,0x6B,0x20,0x6B,0x0,0x0,0x0,0x0,0x40,0x6B,0x40,0x73,0xA0,0x63,0x60,0x73,0x0,0x0,0x0,0x0,0x0,0x0,0x0,0x0,0x40,0x6B,0x20,0x73,0x0,0x73,0x0,0x73,0x80,0x5B,0x20,0x73,0x0,0x0,0x21,0xFD,0x40,0x6B,0x40,0xE0,0x0,0xD8,0x40,0xD0,0x20,0xD0,0x40,0x73,0x21,0xFD,0x60,0xFD,0x60,0xFD,0x0,0xD8,0x0,0xD8,0x0,0xD8,0x0,0xD8,0x80,0xFD,0x60,0xFD,0x0,0x0,0x0,0xD0,0x0,0xD8,0x0,0x0,0x0,0x0,0x0,0xD8,0x2,0xD0,0x0,0x0,0x0,0x0,0x40,0x6B,0x40,0x63,0x0,0x0,0x0,0x0,0x60,0x6B,0x40,0x6B,0x0,0x0,0x0,0x0,0x0,0x0,0x0,0x0,0x0,0x0,0x0,0x0,0x0,0x0,0x0,0x0,0x0,0x0,0x0,0x0,0x0,0x0,0x0,0x0,0x0,0x0,0x0,0x0,0x0,0x0,0x0,0x0,0x0,0x0,0x0,0x0,0x0,0x0,0x0,0x0,0x0,0x0,0x0,0x0,0x0,0x0,0x0,0x0,0x0,0x0}; //   
;  flash unsigned char pp10[] = {0x0,0x0,0x0,0x0,0x0,0x0,0x0,0x0,0x0,0x0,0x0,0x0,0x0,0x0,0x0,0x0,0x0,0x0,0x0,0x0,0x0,0x0,0x20,0x8,0xC3,0x80,0xA2,0x88,0x20,0x10,0x0,0x0,0x0,0x0,0x0,0x0,0x0,0x0,0xC3,0x80,0x24,0xF9,0xC3,0xF8,0xE3,0xB0,0x20,0x10,0x0,0x0,0x0,0x0,0x20,0x8,0xC3,0xA8,0xC2,0xF0,0x82,0xD0,0xC3,0xF0,0x82,0x80,0x0,0x0,0xC0,0x3B,0x61,0x53,0x83,0xB0,0x62,0xF0,0x82,0xD8,0x82,0xD0,0x82,0xB8,0xE0,0x32,0xE0,0x97,0x0,0x44,0x42,0xB0,0x62,0xF0,0x82,0xE0,0x82,0xD0,0x82,0xB8,0xA0,0x6E,0xE0,0x9F,0x20,0x12,0x3,0x98,0xA2,0xF8,0x82,0xE0,0x61,0xD8,0x82,0xC0,0xE1,0x54,0xE0,0x43,0x40,0x0,0x83,0xA8,0x82,0xF8,0x61,0xE0,0x82,0xF8,0x61,0x78,0x0,0x0,0x0,0x0,0x0,0x0,0x82,0x70,0xE3,0xF8,0x82,0xF8,0x82,0xB0,0x0,0x0,0x0,0x0,0x0,0x0,0x0,0x0,0x0,0x0,0x41,0x68,0x41,0x70,0x0,0x0,0x0,0x0,0x0,0x0,0x0,0x0,0x0,0x0,0x0,0x0,0x0,0x0,0x0,0x0,0x0,0x0,0x0,0x0}; // 
;  flash unsigned char pp11[] = {0x0,0x0,0x0,0x0,0x0,0x0,0x0,0x0,0x0,0x0,0x0,0x0,0x0,0x0,0x0,0x0,0x0,0x0,0x0,0x0,0x0,0x0,0x0,0x0,0xE4,0x48,0x0,0x0,0x0,0x0,0x0,0x0,0x0,0x0,0x0,0x0,0x46,0x69,0xEA,0xC1,0xB,0xDA,0xC9,0xA1,0xA2,0x30,0x0,0x0,0x0,0x0,0x68,0x91,0x6C,0xE2,0x2C,0xEA,0x2C,0xEA,0x6C,0xEA,0x2B,0xDA,0x0,0x0,0x82,0x28,0xEA,0xC9,0x8D,0xEA,0x2C,0xEA,0x2C,0xEA,0x4C,0xEA,0x6C,0xF2,0x46,0x71,0xE4,0x50,0xAB,0x61,0x2D,0x62,0x4C,0xEA,0x2C,0xEA,0xC,0x82,0x2D,0x62,0xC9,0xA9,0xE5,0x50,0x6A,0x39,0xED,0x31,0xC,0xAA,0xB,0xBA,0xED,0x31,0xED,0x39,0xC9,0xA1,0x27,0x51,0x8B,0x29,0xAC,0x29,0x6A,0x59,0x8A,0x69,0xAC,0x29,0xCC,0x31,0xC,0xA2,0xE6,0x48,0xAC,0x29,0xFF,0xFF,0x4A,0x39,0x49,0x49,0xFF,0xFF,0xAC,0x29,0x2C,0x92,0xA3,0x38,0xAC,0x31,0xAC,0x29,0x8A,0x69,0xB,0xA2,0xAC,0x29,0xCD,0x31,0x47,0x61,0x82,0x28,0xAB,0x61,0xCC,0x39,0xCA,0xA9,0xB,0xD2,0xED,0x49,0xD,0x5A,0x25,0x61,0x0,0x0,0x68,0x81,0x4C,0xCA,0x2C,0xEA,0x2C,0xEA,0x4C,0xE2,0x2B,0xCA,0x0,0x0,0x0,0x0,0x0,0x0,0x88,0x81,0xEA,0xC9,0x2C,0xEA,0x4C,0xD2,0xA2,0x30,0x0,0x0,0x0,0x0,0x0,0x0,0x0,0x0,0xA3,0x38,0xE4,0x48,0x0,0x0,0x0,0x0,0x0,0x0,0x0,0x0,0x0,0x0,0x0,0x0,0x0,0x0,0x0,0x0,0x0,0x0,0x0,0x0,0x0,0x0}; // -
;  flash unsigned char pp12[] = {0x0,0x0,0x0,0x0,0x0,0x0,0x0,0x0,0x0,0x0,0x0,0x0,0x0,0x0,0x0,0x0,0x0,0x0,0x0,0x0,0x0,0x0,0x0,0x0,0x40,0xFF,0xE0,0xFF,0xE0,0xFF,0x0,0x0,0x0,0x0,0x0,0x0,0x0,0x0,0x60,0xF4,0x60,0xFD,0x0,0x0,0x0,0x0,0x0,0x0,0x40,0xF8,0x0,0x0,0xE0,0xF9,0xE0,0xFA,0x20,0xFC,0x40,0xFD,0x40,0xFE,0x0,0x0,0x0,0x8,0x0,0xF8,0xA0,0xF8,0x0,0x0,0x60,0xFA,0xA0,0xFB,0x20,0x0,0xC0,0xFD,0x0,0x0,0x20,0x0,0x0,0xF8,0x60,0xF8,0x20,0xF9,0x20,0xFA,0x0,0x0,0x60,0xFC,0x0,0x0,0x0,0x0,0x2,0xD8,0x1,0xF8,0x20,0xF8,0xE0,0xF8,0x0,0x0,0x0,0x0,0x0,0x0,0x0,0x0,0x6,0xB0,0x4,0xD0,0x1,0xE8,0x0,0xF8,0x0,0x0,0x60,0xF9,0x0,0x0,0xE,0x60,0xB,0x80,0x0,0x0,0x4,0xC8,0x2,0xE0,0x0,0x0,0x40,0xF8,0x14,0x18,0x0,0x0,0xF,0x50,0xC,0x78,0x8,0x98,0x5,0xB8,0x3,0xD8,0x0,0x0,0x0,0x0,0x0,0x0,0x0,0x0,0x10,0x48,0xD,0x68,0x0,0x0,0x0,0x0,0x0,0x0,0x0,0x0,0x0,0x0,0x0,0x0,0x0,0x0,0x11,0x38,0xE,0x58,0xB,0x80,0x0,0x0,0x0,0x0,0x0,0x0,0x0,0x0,0x0,0x0,0x0,0x0,0x0,0x0,0x0,0x0,0x0,0x0,0x0,0x0,0x0,0x0,0x0,0x0,0x0,0x0,0x0,0x0,0x0,0x0,0x0,0x0,0x0,0x0,0x0,0x0,0x0,0x0,0x0,0x0,0x0,0x0,0x0,0x0,0x0,0x0,0x0,0x0,0x0,0x0,0x0,0x0,0x0,0x0,0x0,0x0,0x0,0x0,0x0,0x0,0x0,0x0,0x0,0x0,0x0,0x0}; // 
;  flash unsigned char pp13[] = {
; 0x0,0x0,0x0,0x0,0x0,0x0,0x0,0x0,0x0,0x0,0x0,0x0,0x0,0x0,0x0,0x0,0x0,0x0,0x0,0x0,0x0,0x0,0x0,0x0,0x0,0x0,0x0,0x0,0x0,0x0,0x0,0x0,0x0,0x0,0x0,0x0,0x40,0x31,0xC1,0x6A,0xC1,0x6A,0x20,0x29,0x0,0x0,0x0,0x0,0x0,0x0,0xE3,0x80,0x2,0xF5,0x81,0xFE,0x81,0xFE,0x22,0xF6,0x42,0x83,0x0,0x0,0x23,0x69,0x65,0xE1,0xE2,0xEC,0xA5,0xFE,0xA5,0xFE,0x81,0xFE,0x22,0xF6,0x42,0x62,0x47,0xCA,0xC6,0xE1,0xE,0xDD,0xFA,0x6C,0x58,0x4C,0xCC,0xAD,0x42,0xE6,0x83,0xBC,0xA,0xE3,0x7,0xE2,0xF6,0xB4,0xBA,0x5C,0xF7,0x33,0xD3,0x5C,0x88,0x55,0xE6,0x8C,0x88,0xCA,0xE7,0xE1,0x6E,0xD3,0xD9,0x64,0x58,0x4C,0xAF,0x6D,0xA9,0x4D,0xE7,0x3B,0x43,0x69,0xA6,0xE1,0x4,0xD9,0xE8,0xB2,0xAB,0x6D,0xC9,0x4D,0x68,0x4D,0x3,0x22,0x0,0x0,0x3,0x79,0x7,0x7C,0xA9,0x4D,0xA9,0x4D,0x69,0x4D,0xC4,0x2A,0x0,0x0,0x0,0x0,0x0,0x0,0x21,0x11,0x63,0x22,0x43,0x22,0x1,0x11,0x0,0x0,0x0,0x0,0x0,0x0,0x0,0x0,0x0,0x0,0x0,0x0,0x0,0x0,0x0,0x0,0x0,0x0,0x0,0x0}; // cgrome
;#include <mega8.h>
	#ifndef __SLEEP_DEFINED__
	#define __SLEEP_DEFINED__
	.EQU __se_bit=0x80
	.EQU __sm_mask=0x70
	.EQU __sm_powerdown=0x20
	.EQU __sm_powersave=0x30
	.EQU __sm_standby=0x60
	.EQU __sm_ext_standby=0x70
	.EQU __sm_adc_noise_red=0x10
	.SET power_ctrl_reg=mcucr
	#endif
;#include <delay.h>
;#include <sleep.h>
;#define ALL 13 + 1
;
;  volatile unsigned char count=0,step=0,sr=0;
;  unsigned char rgb[38][3][8] = {0};
;  eeprom unsigned char type;
;
;interrupt [TIM1_OVF] void timer1_ovf_isr(void)
; 0000 000D {

	.CSEG
_timer1_ovf_isr:
; 0000 000E 
; 0000 000F }
	RETI
;
;interrupt [TIM2_OVF] void timer2_ovf_isr(void)
; 0000 0012 {
_timer2_ovf_isr:
	ST   -Y,R0
	ST   -Y,R1
	ST   -Y,R26
	ST   -Y,R27
	ST   -Y,R30
	ST   -Y,R31
	IN   R30,SREG
	ST   -Y,R30
; 0000 0013 
; 0000 0014     #asm("cli")
	cli
; 0000 0015         if(count>8) count=0;
	LDS  R26,_count
	CPI  R26,LOW(0x9)
	BRSH PC+2
	RJMP _0x3
	LDI  R30,LOW(0)
	STS  _count,R30
; 0000 0016     OCR2=rgb[step][0][count];      //RED
_0x3:
	LDS  R30,_step
	LDI  R26,LOW(24)
	MUL  R30,R26
	MOVW R30,R0
	SUBI R30,LOW(-_rgb)
	SBCI R31,HIGH(-_rgb)
	MOVW R26,R30
	LDS  R30,_count
	LDI  R31,0
	ADD  R26,R30
	ADC  R27,R31
	LD   R30,X
	OUT  0x23,R30
; 0000 0017     OCR1A=rgb[step][1][count];     // GREEN
	LDS  R30,_step
	LDI  R26,LOW(24)
	MUL  R30,R26
	MOVW R30,R0
	__ADDW1MN _rgb,8
	MOVW R26,R30
	LDS  R30,_count
	LDI  R31,0
	ADD  R26,R30
	ADC  R27,R31
	LD   R30,X
	LDI  R31,0
	OUT  0x2A+1,R31
	OUT  0x2A,R30
; 0000 0018     OCR1B=rgb[step][2][count];     //BLUE
	LDS  R30,_step
	LDI  R26,LOW(24)
	MUL  R30,R26
	MOVW R30,R0
	__ADDW1MN _rgb,16
	MOVW R26,R30
	LDS  R30,_count
	LDI  R31,0
	ADD  R26,R30
	ADC  R27,R31
	LD   R30,X
	LDI  R31,0
	OUT  0x28+1,R31
	OUT  0x28,R30
; 0000 0019      L = (1<<count++);
	LDS  R30,_count
	SUBI R30,-LOW(1)
	STS  _count,R30
	SUBI R30,LOW(1)
	LDI  R26,LOW(1)
	RCALL __LSLB12
	OUT  0x12,R30
; 0000 001A        #asm("sei")
	sei
; 0000 001B 
; 0000 001C }
	LD   R30,Y+
	OUT  SREG,R30
	LD   R31,Y+
	LD   R30,Y+
	LD   R27,Y+
	LD   R26,Y+
	LD   R1,Y+
	LD   R0,Y+
	RETI
;
;
;interrupt [TIM0_OVF] void timer0_ovf_isr(void)
; 0000 0020 {
_timer0_ovf_isr:
	ST   -Y,R26
	ST   -Y,R30
	ST   -Y,R31
	IN   R30,SREG
	ST   -Y,R30
; 0000 0021  TCNT0=180;
	LDI  R30,LOW(180)
	OUT  0x32,R30
; 0000 0022 step=(step>=sr)?0:(step+1);
	LDS  R30,_sr
	LDS  R26,_step
	CP   R26,R30
	BRSH PC+2
	RJMP _0x4
	LDI  R30,LOW(0)
	RJMP _0x5
_0x4:
	LDS  R30,_step
	LDI  R31,0
	ADIW R30,1
_0x5:
_0x6:
	STS  _step,R30
; 0000 0023 
; 0000 0024 }
	LD   R30,Y+
	OUT  SREG,R30
	LD   R31,Y+
	LD   R30,Y+
	LD   R26,Y+
	RETI
;
;
;void sleep()
; 0000 0028 {
_sleep:
; 0000 0029 MCUCR=0x00;
	LDI  R30,LOW(0)
	OUT  0x35,R30
; 0000 002A #asm("cli");
	cli
; 0000 002B  sleep_enable();
	RCALL _sleep_enable
; 0000 002C  powerdown();
	RCALL _powerdown
; 0000 002D }
	RET
;void conv(flash unsigned char *pic,unsigned int so )
; 0000 002F {
_conv:
; 0000 0030 unsigned int ii=0,c;
; 0000 0031 unsigned char i,j;
; 0000 0032 register unsigned char r=0,g=0,b=0;
; 0000 0033 sr=so/16;
	SBIW R28,3
	LDI  R30,LOW(0)
	ST   Y,R30
	STD  Y+1,R30
	STD  Y+2,R30
	RCALL __SAVELOCR6
;	*pic -> Y+11
;	so -> Y+9
;	ii -> R16,R17
;	c -> R18,R19
;	i -> R21
;	j -> R20
;	r -> Y+8
;	g -> Y+7
;	b -> Y+6
	__GETWRN 16,17,0
	LDD  R30,Y+9
	LDD  R31,Y+9+1
	RCALL __LSRW4
	STS  _sr,R30
; 0000 0034 
; 0000 0035 for (j=0;j<=sr; j++)
	LDI  R20,LOW(0)
_0x8:
	LDS  R30,_sr
	CP   R30,R20
	BRSH PC+2
	RJMP _0x9
; 0000 0036 {
; 0000 0037 for(i=0; i<8 ; i++)
	LDI  R21,LOW(0)
_0xB:
	CPI  R21,8
	BRLO PC+2
	RJMP _0xC
; 0000 0038 {   if(ii>=so) ii=0;
	LDD  R30,Y+9
	LDD  R31,Y+9+1
	CP   R16,R30
	CPC  R17,R31
	BRSH PC+2
	RJMP _0xD
	__GETWRN 16,17,0
; 0000 0039  c=pic[ii++]|(pic[ii++]<<8);
_0xD:
	MOVW R30,R16
	__ADDWRN 16,17,1
	LDD  R26,Y+11
	LDD  R27,Y+11+1
	ADD  R30,R26
	ADC  R31,R27
	LPM  R0,Z
	CLR  R1
	MOVW R30,R16
	__ADDWRN 16,17,1
	ADD  R30,R26
	ADC  R31,R27
	LPM  R30,Z
	MOV  R31,R30
	LDI  R30,0
	OR   R30,R0
	OR   R31,R1
	MOVW R18,R30
; 0000 003A 
; 0000 003B  r=(0xF800 & c)>>11;
	MOVW R30,R18
	ANDI R30,LOW(0xF800)
	ANDI R31,HIGH(0xF800)
	RCALL __LSRW3
	MOV  R30,R31
	LDI  R31,0
	STD  Y+8,R30
; 0000 003C  g=(0x07E0 & c) >>5;
	MOVW R30,R18
	ANDI R30,LOW(0x7E0)
	ANDI R31,HIGH(0x7E0)
	LSR  R31
	ROR  R30
	RCALL __LSRW4
	STD  Y+7,R30
; 0000 003D  b=(0x001F & c);
	MOV  R30,R18
	ANDI R30,LOW(0x1F)
	STD  Y+6,R30
; 0000 003E 
; 0000 003F  rgb[j][0][i] =(float)r/31 * 130;
	LDI  R26,LOW(24)
	MUL  R20,R26
	MOVW R30,R0
	SUBI R30,LOW(-_rgb)
	SBCI R31,HIGH(-_rgb)
	MOVW R26,R30
	MOV  R30,R21
	LDI  R31,0
	ADD  R30,R26
	ADC  R31,R27
	PUSH R31
	PUSH R30
	LDD  R30,Y+8
	CLR  R31
	CLR  R22
	CLR  R23
	RCALL __CDF1
	MOVW R26,R30
	MOVW R24,R22
	__GETD1N 0x41F80000
	RCALL __DIVF21
	__GETD2N 0x43020000
	RCALL __MULF12
	POP  R26
	POP  R27
	RCALL __CFD1U
	ST   X,R30
; 0000 0040  rgb[j][1][i] =(float)g/63  * 150;
	LDI  R26,LOW(24)
	MUL  R20,R26
	MOVW R30,R0
	__ADDW1MN _rgb,8
	MOVW R26,R30
	MOV  R30,R21
	LDI  R31,0
	ADD  R30,R26
	ADC  R31,R27
	PUSH R31
	PUSH R30
	LDD  R30,Y+7
	CLR  R31
	CLR  R22
	CLR  R23
	RCALL __CDF1
	MOVW R26,R30
	MOVW R24,R22
	__GETD1N 0x427C0000
	RCALL __DIVF21
	__GETD2N 0x43160000
	RCALL __MULF12
	POP  R26
	POP  R27
	RCALL __CFD1U
	ST   X,R30
; 0000 0041  rgb[j][2][i] = (float)b/31 * 150;
	LDI  R26,LOW(24)
	MUL  R20,R26
	MOVW R30,R0
	__ADDW1MN _rgb,16
	MOVW R26,R30
	MOV  R30,R21
	LDI  R31,0
	ADD  R30,R26
	ADC  R31,R27
	PUSH R31
	PUSH R30
	LDD  R30,Y+6
	CLR  R31
	CLR  R22
	CLR  R23
	RCALL __CDF1
	MOVW R26,R30
	MOVW R24,R22
	__GETD1N 0x41F80000
	RCALL __DIVF21
	__GETD2N 0x43160000
	RCALL __MULF12
	POP  R26
	POP  R27
	RCALL __CFD1U
	ST   X,R30
; 0000 0042 
; 0000 0043 }
_0xA:
	SUBI R21,-1
	RJMP _0xB
_0xC:
; 0000 0044 }
_0x7:
	SUBI R20,-1
	RJMP _0x8
_0x9:
; 0000 0045 }
	RCALL __LOADLOCR6
	ADIW R28,13
	RET
;void main(void)
; 0000 0047 {
_main:
; 0000 0048 unsigned char i=0;
; 0000 0049     #asm("cli")
;	i -> R17
	LDI  R17,0
	cli
; 0000 004A 
; 0000 004B PORTB=0x00;
	LDI  R30,LOW(0)
	OUT  0x18,R30
; 0000 004C DDRB=0x0E;
	LDI  R30,LOW(14)
	OUT  0x17,R30
; 0000 004D 
; 0000 004E 
; 0000 004F PORTC=0x40;
	LDI  R30,LOW(64)
	OUT  0x15,R30
; 0000 0050 DDRC=0x00;
	LDI  R30,LOW(0)
	OUT  0x14,R30
; 0000 0051 
; 0000 0052 PORTD=0x00;
	OUT  0x12,R30
; 0000 0053 DDRD=0xFF;
	LDI  R30,LOW(255)
	OUT  0x11,R30
; 0000 0054 
; 0000 0055 TCCR0=0x03;
	LDI  R30,LOW(3)
	OUT  0x33,R30
; 0000 0056 TCNT0=180;
	LDI  R30,LOW(180)
	OUT  0x32,R30
; 0000 0057 
; 0000 0058 TCCR1A=0xF1;
	LDI  R30,LOW(241)
	OUT  0x2F,R30
; 0000 0059 //TCCR1B=0x09;
; 0000 005A TCCR1B=0x01;
	LDI  R30,LOW(1)
	OUT  0x2E,R30
; 0000 005B TCNT1H=0x00;
	LDI  R30,LOW(0)
	OUT  0x2D,R30
; 0000 005C TCNT1L=0x00;
	OUT  0x2C,R30
; 0000 005D ICR1H=0x00;
	OUT  0x27,R30
; 0000 005E ICR1L=0x00;
	OUT  0x26,R30
; 0000 005F OCR1AH=0x00;
	OUT  0x2B,R30
; 0000 0060 OCR1AL=0x00;
	OUT  0x2A,R30
; 0000 0061 OCR1BH=0x00;
	OUT  0x29,R30
; 0000 0062 OCR1BL=0x00;
	OUT  0x28,R30
; 0000 0063 
; 0000 0064 ASSR=0x00;
	OUT  0x22,R30
; 0000 0065 //TCCR2=0x79;
; 0000 0066  TCCR2=0x71;
	LDI  R30,LOW(113)
	OUT  0x25,R30
; 0000 0067 TCNT2=0x00;
	LDI  R30,LOW(0)
	OUT  0x24,R30
; 0000 0068 OCR2=0x00;
	OUT  0x23,R30
; 0000 0069 
; 0000 006A 
; 0000 006B MCUCR=0x00;
	OUT  0x35,R30
; 0000 006C 
; 0000 006D 
; 0000 006E TIMSK=0x45;
	LDI  R30,LOW(69)
	OUT  0x39,R30
; 0000 006F 
; 0000 0070 
; 0000 0071 UCSRB=0x00;
	LDI  R30,LOW(0)
	OUT  0xA,R30
; 0000 0072 ACSR=0x80;
	LDI  R30,LOW(128)
	OUT  0x8,R30
; 0000 0073 SFIOR=0x00;
	LDI  R30,LOW(0)
	OUT  0x30,R30
; 0000 0074 ADCSRA=0x00;
	OUT  0x6,R30
; 0000 0075 SPCR=0x00;
	OUT  0xD,R30
; 0000 0076 TWCR=0x00;
	OUT  0x36,R30
; 0000 0077 
; 0000 0078 
; 0000 0079 if ((MCUCSR & 1)) { MCUCSR=0;
	IN   R30,0x34
	SBRS R30,0
	RJMP _0xE
	LDI  R30,LOW(0)
	OUT  0x34,R30
; 0000 007A 
; 0000 007B    OCR2=100;
	LDI  R30,LOW(100)
	OUT  0x23,R30
; 0000 007C  for (i=0; i<8; i++) {  L   =1<<i; delay_ms(100);} OCR2=OCR1A=OCR1B=0;
	LDI  R17,LOW(0)
_0x10:
	CPI  R17,8
	BRLO PC+2
	RJMP _0x11
	MOV  R30,R17
	LDI  R26,LOW(1)
	RCALL __LSLB12
	OUT  0x12,R30
	LDI  R30,LOW(100)
	LDI  R31,HIGH(100)
	ST   -Y,R31
	ST   -Y,R30
	RCALL _delay_ms
_0xF:
	SUBI R17,-1
	RJMP _0x10
_0x11:
	LDI  R30,LOW(0)
	LDI  R31,HIGH(0)
	OUT  0x28+1,R31
	OUT  0x28,R30
	OUT  0x2A+1,R31
	OUT  0x2A,R30
	OUT  0x23,R30
; 0000 007D 
; 0000 007E   OCR1A=100;
	LDI  R30,LOW(100)
	LDI  R31,HIGH(100)
	OUT  0x2A+1,R31
	OUT  0x2A,R30
; 0000 007F  for (i=0; i<8; i++) {  L   =1<<i;  delay_ms(100); } OCR2=OCR1A=OCR1B=0;
	LDI  R17,LOW(0)
_0x13:
	CPI  R17,8
	BRLO PC+2
	RJMP _0x14
	MOV  R30,R17
	LDI  R26,LOW(1)
	RCALL __LSLB12
	OUT  0x12,R30
	LDI  R30,LOW(100)
	LDI  R31,HIGH(100)
	ST   -Y,R31
	ST   -Y,R30
	RCALL _delay_ms
_0x12:
	SUBI R17,-1
	RJMP _0x13
_0x14:
	LDI  R30,LOW(0)
	LDI  R31,HIGH(0)
	OUT  0x28+1,R31
	OUT  0x28,R30
	OUT  0x2A+1,R31
	OUT  0x2A,R30
	OUT  0x23,R30
; 0000 0080 
; 0000 0081   OCR1B=100;
	LDI  R30,LOW(100)
	LDI  R31,HIGH(100)
	OUT  0x28+1,R31
	OUT  0x28,R30
; 0000 0082  for (i=0; i<8; i++) {  L   =1<<i;  delay_ms(100); }   OCR2=OCR1A=OCR1B=0;
	LDI  R17,LOW(0)
_0x16:
	CPI  R17,8
	BRLO PC+2
	RJMP _0x17
	MOV  R30,R17
	LDI  R26,LOW(1)
	RCALL __LSLB12
	OUT  0x12,R30
	LDI  R30,LOW(100)
	LDI  R31,HIGH(100)
	ST   -Y,R31
	ST   -Y,R30
	RCALL _delay_ms
_0x15:
	SUBI R17,-1
	RJMP _0x16
_0x17:
	LDI  R30,LOW(0)
	LDI  R31,HIGH(0)
	OUT  0x28+1,R31
	OUT  0x28,R30
	OUT  0x2A+1,R31
	OUT  0x2A,R30
	OUT  0x23,R30
; 0000 0083   L=0;
	OUT  0x12,R30
; 0000 0084   type=0;
	LDI  R26,LOW(_type)
	LDI  R27,HIGH(_type)
	RCALL __EEPROMWRB
; 0000 0085 sleep();}
	RCALL _sleep
; 0000 0086 
; 0000 0087       if ((MCUCSR & 2))
_0xE:
	IN   R30,0x34
	SBRS R30,1
	RJMP _0x18
; 0000 0088 {
; 0000 0089 MCUCSR=0;
	LDI  R30,LOW(0)
	OUT  0x34,R30
; 0000 008A type++;
	LDI  R26,LOW(_type)
	LDI  R27,HIGH(_type)
	RCALL __EEPROMRDB
	SUBI R30,-LOW(1)
	RCALL __EEPROMWRB
	SUBI R30,LOW(1)
; 0000 008B  if(type>=ALL){ type=0;  sleep(); }
	LDI  R26,LOW(_type)
	LDI  R27,HIGH(_type)
	RCALL __EEPROMRDB
	CPI  R30,LOW(0xE)
	BRSH PC+2
	RJMP _0x19
	LDI  R26,LOW(_type)
	LDI  R27,HIGH(_type)
	LDI  R30,LOW(0)
	RCALL __EEPROMWRB
	RCALL _sleep
; 0000 008C }
_0x19:
; 0000 008D 
; 0000 008E   switch(type)
_0x18:
	LDI  R26,LOW(_type)
	LDI  R27,HIGH(_type)
	RCALL __EEPROMRDB
	LDI  R31,0
; 0000 008F   {
; 0000 0090   case 1:  conv(pp,sizeof(pp)); break;
	CPI  R30,LOW(0x1)
	LDI  R26,HIGH(0x1)
	CPC  R31,R26
	BREQ PC+2
	RJMP _0x1D
	LDI  R30,LOW(_pp*2)
	LDI  R31,HIGH(_pp*2)
	ST   -Y,R31
	ST   -Y,R30
	LDI  R30,LOW(480)
	LDI  R31,HIGH(480)
	ST   -Y,R31
	ST   -Y,R30
	RCALL _conv
	RJMP _0x1C
; 0000 0091    case 2:  conv(pp2,sizeof(pp2)); break;
_0x1D:
	CPI  R30,LOW(0x2)
	LDI  R26,HIGH(0x2)
	CPC  R31,R26
	BREQ PC+2
	RJMP _0x1E
	LDI  R30,LOW(_pp2*2)
	LDI  R31,HIGH(_pp2*2)
	ST   -Y,R31
	ST   -Y,R30
	LDI  R30,LOW(352)
	LDI  R31,HIGH(352)
	ST   -Y,R31
	ST   -Y,R30
	RCALL _conv
	RJMP _0x1C
; 0000 0092     case 3: conv(pp3,sizeof(pp3)); break;
_0x1E:
	CPI  R30,LOW(0x3)
	LDI  R26,HIGH(0x3)
	CPC  R31,R26
	BREQ PC+2
	RJMP _0x1F
	LDI  R30,LOW(_pp3*2)
	LDI  R31,HIGH(_pp3*2)
	ST   -Y,R31
	ST   -Y,R30
	LDI  R30,LOW(288)
	LDI  R31,HIGH(288)
	ST   -Y,R31
	ST   -Y,R30
	RCALL _conv
	RJMP _0x1C
; 0000 0093      case 4:  conv(pp4,sizeof(pp4)); break;
_0x1F:
	CPI  R30,LOW(0x4)
	LDI  R26,HIGH(0x4)
	CPC  R31,R26
	BREQ PC+2
	RJMP _0x20
	LDI  R30,LOW(_pp4*2)
	LDI  R31,HIGH(_pp4*2)
	ST   -Y,R31
	ST   -Y,R30
	LDI  R30,LOW(320)
	LDI  R31,HIGH(320)
	ST   -Y,R31
	ST   -Y,R30
	RCALL _conv
	RJMP _0x1C
; 0000 0094       case 5:  conv(pp5,sizeof(pp5)); break;
_0x20:
	CPI  R30,LOW(0x5)
	LDI  R26,HIGH(0x5)
	CPC  R31,R26
	BREQ PC+2
	RJMP _0x21
	LDI  R30,LOW(_pp5*2)
	LDI  R31,HIGH(_pp5*2)
	ST   -Y,R31
	ST   -Y,R30
	LDI  R30,LOW(336)
	LDI  R31,HIGH(336)
	ST   -Y,R31
	ST   -Y,R30
	RCALL _conv
	RJMP _0x1C
; 0000 0095        case 6:  conv(pp6,sizeof(pp6)); break;
_0x21:
	CPI  R30,LOW(0x6)
	LDI  R26,HIGH(0x6)
	CPC  R31,R26
	BREQ PC+2
	RJMP _0x22
	LDI  R30,LOW(_pp6*2)
	LDI  R31,HIGH(_pp6*2)
	ST   -Y,R31
	ST   -Y,R30
	LDI  R30,LOW(608)
	LDI  R31,HIGH(608)
	ST   -Y,R31
	ST   -Y,R30
	RCALL _conv
	RJMP _0x1C
; 0000 0096         case 7:  conv(pp7,sizeof(pp7)); break;
_0x22:
	CPI  R30,LOW(0x7)
	LDI  R26,HIGH(0x7)
	CPC  R31,R26
	BREQ PC+2
	RJMP _0x23
	LDI  R30,LOW(_pp7*2)
	LDI  R31,HIGH(_pp7*2)
	ST   -Y,R31
	ST   -Y,R30
	LDI  R30,LOW(240)
	LDI  R31,HIGH(240)
	ST   -Y,R31
	ST   -Y,R30
	RCALL _conv
	RJMP _0x1C
; 0000 0097         case 8:  conv(pp8,sizeof(pp8)); break;
_0x23:
	CPI  R30,LOW(0x8)
	LDI  R26,HIGH(0x8)
	CPC  R31,R26
	BREQ PC+2
	RJMP _0x24
	LDI  R30,LOW(_pp8*2)
	LDI  R31,HIGH(_pp8*2)
	ST   -Y,R31
	ST   -Y,R30
	LDI  R30,LOW(496)
	LDI  R31,HIGH(496)
	ST   -Y,R31
	ST   -Y,R30
	RCALL _conv
	RJMP _0x1C
; 0000 0098          case 9:  conv(pp9,sizeof(pp9)); break;
_0x24:
	CPI  R30,LOW(0x9)
	LDI  R26,HIGH(0x9)
	CPC  R31,R26
	BREQ PC+2
	RJMP _0x25
	LDI  R30,LOW(_pp9*2)
	LDI  R31,HIGH(_pp9*2)
	ST   -Y,R31
	ST   -Y,R30
	LDI  R30,LOW(256)
	LDI  R31,HIGH(256)
	ST   -Y,R31
	ST   -Y,R30
	RCALL _conv
	RJMP _0x1C
; 0000 0099           case 10:  conv(pp10,sizeof(pp10)); break;
_0x25:
	CPI  R30,LOW(0xA)
	LDI  R26,HIGH(0xA)
	CPC  R31,R26
	BREQ PC+2
	RJMP _0x26
	LDI  R30,LOW(_pp10*2)
	LDI  R31,HIGH(_pp10*2)
	ST   -Y,R31
	ST   -Y,R30
	LDI  R30,LOW(176)
	LDI  R31,HIGH(176)
	ST   -Y,R31
	ST   -Y,R30
	RCALL _conv
	RJMP _0x1C
; 0000 009A            case 11:  conv(pp11,sizeof(pp11)); break;
_0x26:
	CPI  R30,LOW(0xB)
	LDI  R26,HIGH(0xB)
	CPC  R31,R26
	BREQ PC+2
	RJMP _0x27
	LDI  R30,LOW(_pp11*2)
	LDI  R31,HIGH(_pp11*2)
	ST   -Y,R31
	ST   -Y,R30
	LDI  R30,LOW(240)
	LDI  R31,HIGH(240)
	ST   -Y,R31
	ST   -Y,R30
	RCALL _conv
	RJMP _0x1C
; 0000 009B             case 12:  conv(pp12,sizeof(pp12)); break;
_0x27:
	CPI  R30,LOW(0xC)
	LDI  R26,HIGH(0xC)
	CPC  R31,R26
	BREQ PC+2
	RJMP _0x28
	LDI  R30,LOW(_pp12*2)
	LDI  R31,HIGH(_pp12*2)
	ST   -Y,R31
	ST   -Y,R30
	LDI  R30,LOW(256)
	LDI  R31,HIGH(256)
	ST   -Y,R31
	ST   -Y,R30
	RCALL _conv
	RJMP _0x1C
; 0000 009C             case 13:  conv(pp13,sizeof(pp13)); break;
_0x28:
	CPI  R30,LOW(0xD)
	LDI  R26,HIGH(0xD)
	CPC  R31,R26
	BREQ PC+2
	RJMP _0x2A
	LDI  R30,LOW(_pp13*2)
	LDI  R31,HIGH(_pp13*2)
	ST   -Y,R31
	ST   -Y,R30
	LDI  R30,LOW(192)
	LDI  R31,HIGH(192)
	ST   -Y,R31
	ST   -Y,R30
	RCALL _conv
	RJMP _0x1C
; 0000 009D             default: type=0;
_0x2A:
	LDI  R26,LOW(_type)
	LDI  R27,HIGH(_type)
	LDI  R30,LOW(0)
	RCALL __EEPROMWRB
; 0000 009E   #asm("RJMP 0")
	RJMP 0
; 0000 009F   }
_0x1C:
; 0000 00A0 
; 0000 00A1  #asm("sei")
	sei
; 0000 00A2   while(1);
_0x2B:
	RJMP _0x2B
_0x2D:
; 0000 00A3 
; 0000 00A4 
; 0000 00A5 }
_0x2E:
	RJMP _0x2E
	#ifndef __SLEEP_DEFINED__
	#define __SLEEP_DEFINED__
	.EQU __se_bit=0x80
	.EQU __sm_mask=0x70
	.EQU __sm_powerdown=0x20
	.EQU __sm_powersave=0x30
	.EQU __sm_standby=0x60
	.EQU __sm_ext_standby=0x70
	.EQU __sm_adc_noise_red=0x10
	.SET power_ctrl_reg=mcucr
	#endif

	.CSEG
_sleep_enable:
   in   r30,power_ctrl_reg
   sbr  r30,__se_bit
   out  power_ctrl_reg,r30
	RET
_powerdown:
   in   r30,power_ctrl_reg
   cbr  r30,__sm_mask
   sbr  r30,__sm_powerdown
   out  power_ctrl_reg,r30
   in   r30,sreg
   sei
   sleep
   out  sreg,r30
	RET

	.DSEG
_count:
	.BYTE 0x1
_step:
	.BYTE 0x1
_sr:
	.BYTE 0x1
_rgb:
	.BYTE 0x390

	.ESEG
_type:
	.BYTE 0x1

	.CSEG

	.CSEG
_delay_ms:
	ld   r30,y+
	ld   r31,y+
	adiw r30,0
	breq __delay_ms1
__delay_ms0:
	__DELAY_USW 0x1F4
	wdr
	sbiw r30,1
	brne __delay_ms0
__delay_ms1:
	ret

__ROUND_REPACK:
	TST  R21
	BRPL __REPACK
	CPI  R21,0x80
	BRNE __ROUND_REPACK0
	SBRS R30,0
	RJMP __REPACK
__ROUND_REPACK0:
	ADIW R30,1
	ADC  R22,R25
	ADC  R23,R25
	BRVS __REPACK1

__REPACK:
	LDI  R21,0x80
	EOR  R21,R23
	BRNE __REPACK0
	PUSH R21
	RJMP __ZERORES
__REPACK0:
	CPI  R21,0xFF
	BREQ __REPACK1
	LSL  R22
	LSL  R0
	ROR  R21
	ROR  R22
	MOV  R23,R21
	RET
__REPACK1:
	PUSH R21
	TST  R0
	BRMI __REPACK2
	RJMP __MAXRES
__REPACK2:
	RJMP __MINRES

__UNPACK:
	LDI  R21,0x80
	MOV  R1,R25
	AND  R1,R21
	LSL  R24
	ROL  R25
	EOR  R25,R21
	LSL  R21
	ROR  R24

__UNPACK1:
	LDI  R21,0x80
	MOV  R0,R23
	AND  R0,R21
	LSL  R22
	ROL  R23
	EOR  R23,R21
	LSL  R21
	ROR  R22
	RET

__CFD1U:
	SET
	RJMP __CFD1U0
__CFD1:
	CLT
__CFD1U0:
	PUSH R21
	RCALL __UNPACK1
	CPI  R23,0x80
	BRLO __CFD10
	CPI  R23,0xFF
	BRCC __CFD10
	RJMP __ZERORES
__CFD10:
	LDI  R21,22
	SUB  R21,R23
	BRPL __CFD11
	NEG  R21
	CPI  R21,8
	BRTC __CFD19
	CPI  R21,9
__CFD19:
	BRLO __CFD17
	SER  R30
	SER  R31
	SER  R22
	LDI  R23,0x7F
	BLD  R23,7
	RJMP __CFD15
__CFD17:
	CLR  R23
	TST  R21
	BREQ __CFD15
__CFD18:
	LSL  R30
	ROL  R31
	ROL  R22
	ROL  R23
	DEC  R21
	BRNE __CFD18
	RJMP __CFD15
__CFD11:
	CLR  R23
__CFD12:
	CPI  R21,8
	BRLO __CFD13
	MOV  R30,R31
	MOV  R31,R22
	MOV  R22,R23
	SUBI R21,8
	RJMP __CFD12
__CFD13:
	TST  R21
	BREQ __CFD15
__CFD14:
	LSR  R23
	ROR  R22
	ROR  R31
	ROR  R30
	DEC  R21
	BRNE __CFD14
__CFD15:
	TST  R0
	BRPL __CFD16
	RCALL __ANEGD1
__CFD16:
	POP  R21
	RET

__CDF1U:
	SET
	RJMP __CDF1U0
__CDF1:
	CLT
__CDF1U0:
	SBIW R30,0
	SBCI R22,0
	SBCI R23,0
	BREQ __CDF10
	CLR  R0
	BRTS __CDF11
	TST  R23
	BRPL __CDF11
	COM  R0
	RCALL __ANEGD1
__CDF11:
	MOV  R1,R23
	LDI  R23,30
	TST  R1
__CDF12:
	BRMI __CDF13
	DEC  R23
	LSL  R30
	ROL  R31
	ROL  R22
	ROL  R1
	RJMP __CDF12
__CDF13:
	MOV  R30,R31
	MOV  R31,R22
	MOV  R22,R1
	PUSH R21
	RCALL __REPACK
	POP  R21
__CDF10:
	RET

__ZERORES:
	CLR  R30
	CLR  R31
	CLR  R22
	CLR  R23
	POP  R21
	RET

__MINRES:
	SER  R30
	SER  R31
	LDI  R22,0x7F
	SER  R23
	POP  R21
	RET

__MAXRES:
	SER  R30
	SER  R31
	LDI  R22,0x7F
	LDI  R23,0x7F
	POP  R21
	RET

__MULF12:
	PUSH R21
	RCALL __UNPACK
	CPI  R23,0x80
	BREQ __ZERORES
	CPI  R25,0x80
	BREQ __ZERORES
	EOR  R0,R1
	SEC
	ADC  R23,R25
	BRVC __MULF124
	BRLT __ZERORES
__MULF125:
	TST  R0
	BRMI __MINRES
	RJMP __MAXRES
__MULF124:
	PUSH R0
	PUSH R17
	PUSH R18
	PUSH R19
	PUSH R20
	CLR  R17
	CLR  R18
	CLR  R25
	MUL  R22,R24
	MOVW R20,R0
	MUL  R24,R31
	MOV  R19,R0
	ADD  R20,R1
	ADC  R21,R25
	MUL  R22,R27
	ADD  R19,R0
	ADC  R20,R1
	ADC  R21,R25
	MUL  R24,R30
	RCALL __MULF126
	MUL  R27,R31
	RCALL __MULF126
	MUL  R22,R26
	RCALL __MULF126
	MUL  R27,R30
	RCALL __MULF127
	MUL  R26,R31
	RCALL __MULF127
	MUL  R26,R30
	ADD  R17,R1
	ADC  R18,R25
	ADC  R19,R25
	ADC  R20,R25
	ADC  R21,R25
	MOV  R30,R19
	MOV  R31,R20
	MOV  R22,R21
	MOV  R21,R18
	POP  R20
	POP  R19
	POP  R18
	POP  R17
	POP  R0
	TST  R22
	BRMI __MULF122
	LSL  R21
	ROL  R30
	ROL  R31
	ROL  R22
	RJMP __MULF123
__MULF122:
	INC  R23
	BRVS __MULF125
__MULF123:
	RCALL __ROUND_REPACK
	POP  R21
	RET

__MULF127:
	ADD  R17,R0
	ADC  R18,R1
	ADC  R19,R25
	RJMP __MULF128
__MULF126:
	ADD  R18,R0
	ADC  R19,R1
__MULF128:
	ADC  R20,R25
	ADC  R21,R25
	RET

__DIVF21:
	PUSH R21
	RCALL __UNPACK
	CPI  R23,0x80
	BRNE __DIVF210
	TST  R1
__DIVF211:
	BRPL __DIVF219
	RJMP __MINRES
__DIVF219:
	RJMP __MAXRES
__DIVF210:
	CPI  R25,0x80
	BRNE __DIVF218
__DIVF217:
	RJMP __ZERORES
__DIVF218:
	EOR  R0,R1
	SEC
	SBC  R25,R23
	BRVC __DIVF216
	BRLT __DIVF217
	TST  R0
	RJMP __DIVF211
__DIVF216:
	MOV  R23,R25
	PUSH R17
	PUSH R18
	PUSH R19
	PUSH R20
	CLR  R1
	CLR  R17
	CLR  R18
	CLR  R19
	CLR  R20
	CLR  R21
	LDI  R25,32
__DIVF212:
	CP   R26,R30
	CPC  R27,R31
	CPC  R24,R22
	CPC  R20,R17
	BRLO __DIVF213
	SUB  R26,R30
	SBC  R27,R31
	SBC  R24,R22
	SBC  R20,R17
	SEC
	RJMP __DIVF214
__DIVF213:
	CLC
__DIVF214:
	ROL  R21
	ROL  R18
	ROL  R19
	ROL  R1
	ROL  R26
	ROL  R27
	ROL  R24
	ROL  R20
	DEC  R25
	BRNE __DIVF212
	MOVW R30,R18
	MOV  R22,R1
	POP  R20
	POP  R19
	POP  R18
	POP  R17
	TST  R22
	BRMI __DIVF215
	LSL  R21
	ROL  R30
	ROL  R31
	ROL  R22
	DEC  R23
	BRVS __DIVF217
__DIVF215:
	RCALL __ROUND_REPACK
	POP  R21
	RET

__ANEGD1:
	COM  R31
	COM  R22
	COM  R23
	NEG  R30
	SBCI R31,-1
	SBCI R22,-1
	SBCI R23,-1
	RET

__LSLB12:
	TST  R30
	MOV  R0,R30
	MOV  R30,R26
	BREQ __LSLB12R
__LSLB12L:
	LSL  R30
	DEC  R0
	BRNE __LSLB12L
__LSLB12R:
	RET

__LSRW4:
	LSR  R31
	ROR  R30
__LSRW3:
	LSR  R31
	ROR  R30
__LSRW2:
	LSR  R31
	ROR  R30
	LSR  R31
	ROR  R30
	RET

__CBD1:
	MOV  R31,R30
	ADD  R31,R31
	SBC  R31,R31
	MOV  R22,R31
	MOV  R23,R31
	RET

__EEPROMRDB:
	SBIC EECR,EEWE
	RJMP __EEPROMRDB
	PUSH R31
	IN   R31,SREG
	CLI
	OUT  EEARL,R26
	OUT  EEARH,R27
	SBI  EECR,EERE
	IN   R30,EEDR
	OUT  SREG,R31
	POP  R31
	RET

__EEPROMWRB:
	SBIS EECR,EEWE
	RJMP __EEPROMWRB1
	WDR
	RJMP __EEPROMWRB
__EEPROMWRB1:
	IN   R25,SREG
	CLI
	OUT  EEARL,R26
	OUT  EEARH,R27
	SBI  EECR,EERE
	IN   R24,EEDR
	CP   R30,R24
	BREQ __EEPROMWRB0
	OUT  EEDR,R30
	SBI  EECR,EEMWE
	SBI  EECR,EEWE
__EEPROMWRB0:
	OUT  SREG,R25
	RET

__SAVELOCR6:
	ST   -Y,R21
__SAVELOCR5:
	ST   -Y,R20
__SAVELOCR4:
	ST   -Y,R19
__SAVELOCR3:
	ST   -Y,R18
__SAVELOCR2:
	ST   -Y,R17
	ST   -Y,R16
	RET

__LOADLOCR6:
	LDD  R21,Y+5
__LOADLOCR5:
	LDD  R20,Y+4
__LOADLOCR4:
	LDD  R19,Y+3
__LOADLOCR3:
	LDD  R18,Y+2
__LOADLOCR2:
	LDD  R17,Y+1
	LD   R16,Y
	RET

;END OF CODE MARKER
__END_OF_CODE:
